ARM GAS  C:\Users\jonat\AppData\Local\Temp\ccmYXKG7.s 			page 1


   1              		.cpu cortex-m0
   2              		.arch armv6s-m
   3              		.fpu softvfp
   4              		.eabi_attribute 20, 1
   5              		.eabi_attribute 21, 1
   6              		.eabi_attribute 23, 3
   7              		.eabi_attribute 24, 1
   8              		.eabi_attribute 25, 1
   9              		.eabi_attribute 26, 1
  10              		.eabi_attribute 30, 1
  11              		.eabi_attribute 34, 0
  12              		.eabi_attribute 18, 4
  13              		.file	"main.c"
  14              		.text
  15              	.Ltext0:
  16              		.cfi_sections	.debug_frame
  17              		.file 1 "Core/Src/main.c"
  18              		.section	.text.MX_GPIO_Init,"ax",%progbits
  19              		.align	1
  20              		.syntax unified
  21              		.code	16
  22              		.thumb_func
  24              	MX_GPIO_Init:
  25              	.LFB42:
   1:Core/Src/main.c **** /* USER CODE BEGIN Header */
   2:Core/Src/main.c **** /**
   3:Core/Src/main.c ****   ******************************************************************************
   4:Core/Src/main.c ****   * @file           : main.c
   5:Core/Src/main.c ****   * @brief          : Main program body
   6:Core/Src/main.c ****   ******************************************************************************
   7:Core/Src/main.c ****   * @attention
   8:Core/Src/main.c ****   *
   9:Core/Src/main.c ****   * Copyright (c) 2025 STMicroelectronics.
  10:Core/Src/main.c ****   * All rights reserved.
  11:Core/Src/main.c ****   *
  12:Core/Src/main.c ****   * This software is licensed under terms that can be found in the LICENSE file
  13:Core/Src/main.c ****   * in the root directory of this software component.
  14:Core/Src/main.c ****   * If no LICENSE file comes with this software, it is provided AS-IS.
  15:Core/Src/main.c ****   *
  16:Core/Src/main.c ****   ******************************************************************************
  17:Core/Src/main.c ****   */
  18:Core/Src/main.c **** /* USER CODE END Header */
  19:Core/Src/main.c **** /* Includes ------------------------------------------------------------------*/
  20:Core/Src/main.c **** #include "main.h"
  21:Core/Src/main.c **** 
  22:Core/Src/main.c **** /* Private includes ----------------------------------------------------------*/
  23:Core/Src/main.c **** /* USER CODE BEGIN Includes */
  24:Core/Src/main.c **** #include <stdint.h>
  25:Core/Src/main.c **** #include "stm32f0xx.h"
  26:Core/Src/main.c **** 
  27:Core/Src/main.c **** /* Private typedef -----------------------------------------------------------*/
  28:Core/Src/main.c **** /* USER CODE BEGIN PTD */
  29:Core/Src/main.c **** #define MAX_ITER 100
  30:Core/Src/main.c **** /* USER CODE END PTD */
  31:Core/Src/main.c **** 
  32:Core/Src/main.c **** /* Private define ------------------------------------------------------------*/
  33:Core/Src/main.c **** /* USER CODE BEGIN PD */
ARM GAS  C:\Users\jonat\AppData\Local\Temp\ccmYXKG7.s 			page 2


  34:Core/Src/main.c **** 
  35:Core/Src/main.c **** /* USER CODE END PD */
  36:Core/Src/main.c **** 
  37:Core/Src/main.c **** /* Private macro -------------------------------------------------------------*/
  38:Core/Src/main.c **** /* USER CODE BEGIN PM */
  39:Core/Src/main.c **** 
  40:Core/Src/main.c **** /* USER CODE END PM */
  41:Core/Src/main.c **** 
  42:Core/Src/main.c **** /* Private variables ---------------------------------------------------------*/
  43:Core/Src/main.c **** 
  44:Core/Src/main.c **** /* USER CODE BEGIN PV */
  45:Core/Src/main.c **** //TODO: Define and initialise the global varibales required
  46:Core/Src/main.c **** 
  47:Core/Src/main.c ****   int start_time = 0;
  48:Core/Src/main.c ****   int end_time = 0;
  49:Core/Src/main.c ****   int execution_time = 0;
  50:Core/Src/main.c ****   uint64_t checksum = 0;
  51:Core/Src/main.c ****   int imageSize[5] = {128,160,192,224,256};
  52:Core/Src/main.c **** 
  53:Core/Src/main.c **** /* USER CODE END PV */
  54:Core/Src/main.c **** 
  55:Core/Src/main.c **** /* Private function prototypes -----------------------------------------------*/
  56:Core/Src/main.c **** void SystemClock_Config(void);
  57:Core/Src/main.c **** static void MX_GPIO_Init(void);
  58:Core/Src/main.c **** /* USER CODE BEGIN PFP */
  59:Core/Src/main.c **** uint64_t calculate_mandelbrot_fixed_point_arithmetic(int width, int height, int max_iterations);
  60:Core/Src/main.c **** uint64_t calculate_mandelbrot_double(int width, int height, int max_iterations);
  61:Core/Src/main.c **** 
  62:Core/Src/main.c **** 
  63:Core/Src/main.c **** /* USER CODE END PFP */
  64:Core/Src/main.c **** 
  65:Core/Src/main.c **** /* Private user code ---------------------------------------------------------*/
  66:Core/Src/main.c **** /* USER CODE BEGIN 0 */
  67:Core/Src/main.c **** 
  68:Core/Src/main.c **** /* USER CODE END 0 */
  69:Core/Src/main.c **** 
  70:Core/Src/main.c **** /**
  71:Core/Src/main.c ****   * @brief  The application entry point.
  72:Core/Src/main.c ****   * @retval int
  73:Core/Src/main.c ****   */
  74:Core/Src/main.c **** int main(void)
  75:Core/Src/main.c **** {
  76:Core/Src/main.c ****   /* USER CODE BEGIN 1 */
  77:Core/Src/main.c **** 
  78:Core/Src/main.c ****   /* USER CODE END 1 */
  79:Core/Src/main.c **** 
  80:Core/Src/main.c ****   /* MCU Configuration--------------------------------------------------------*/
  81:Core/Src/main.c **** 
  82:Core/Src/main.c ****   /* Reset of all peripherals, Initializes the Flash interface and the Systick. */
  83:Core/Src/main.c ****   HAL_Init();
  84:Core/Src/main.c **** 
  85:Core/Src/main.c ****   /* USER CODE BEGIN Init */
  86:Core/Src/main.c **** 
  87:Core/Src/main.c ****   /* USER CODE END Init */
  88:Core/Src/main.c **** 
  89:Core/Src/main.c ****   /* Configure the system clock */
  90:Core/Src/main.c ****   SystemClock_Config();
ARM GAS  C:\Users\jonat\AppData\Local\Temp\ccmYXKG7.s 			page 3


  91:Core/Src/main.c **** 
  92:Core/Src/main.c ****   /* USER CODE BEGIN SysInit */
  93:Core/Src/main.c **** 
  94:Core/Src/main.c ****   /* USER CODE END SysInit */
  95:Core/Src/main.c **** 
  96:Core/Src/main.c ****   /* Initialize all configured peripherals */
  97:Core/Src/main.c ****   MX_GPIO_Init();
  98:Core/Src/main.c ****   /* USER CODE BEGIN 2 */
  99:Core/Src/main.c ****   //TODO: Turn on LED 0 to signify the start of the operation
 100:Core/Src/main.c ****   GPIOB -> ODR |= GPIO_ODR_0;
 101:Core/Src/main.c **** 
 102:Core/Src/main.c ****   //TODO: Record the start time
 103:Core/Src/main.c ****   start_time = HAL_GetTick();
 104:Core/Src/main.c ****   
 105:Core/Src/main.c ****   //TODO: Call the Mandelbrot Function and store the output in the checksum variable defined initia
 106:Core/Src/main.c ****   HAL_Delay(5000);
 107:Core/Src/main.c ****   printf("5 second delay");
 108:Core/Src/main.c **** 
 109:Core/Src/main.c ****   //TODO: Record the end time
 110:Core/Src/main.c ****   end_time = HAL_GetTick();
 111:Core/Src/main.c ****   
 112:Core/Src/main.c **** 
 113:Core/Src/main.c ****   //TODO: Calculate the execution time
 114:Core/Src/main.c ****   execution_time = end_time - start_time;
 115:Core/Src/main.c ****   
 116:Core/Src/main.c **** 
 117:Core/Src/main.c ****   //TODO: Turn on LED 1 to signify the end of the operation
 118:Core/Src/main.c ****   GPIOB -> ODR |= GPIO_ODR_1;
 119:Core/Src/main.c **** 
 120:Core/Src/main.c ****   //TODO: Hold the LEDs on for a 1s delay
 121:Core/Src/main.c ****   HAL_Delay(5000);
 122:Core/Src/main.c **** 
 123:Core/Src/main.c ****   
 124:Core/Src/main.c ****   //TODO: Turn off the LEDs
 125:Core/Src/main.c ****   GPIOB->ODR &=~ (GPIO_ODR_0|GPIO_ODR_1);
 126:Core/Src/main.c ****   
 127:Core/Src/main.c **** 
 128:Core/Src/main.c ****   /* USER CODE END 2 */
 129:Core/Src/main.c **** 
 130:Core/Src/main.c ****   /* Infinite loop */
 131:Core/Src/main.c ****   /* USER CODE BEGIN WHILE */
 132:Core/Src/main.c ****   while (1)
 133:Core/Src/main.c ****   {
 134:Core/Src/main.c ****     /* USER CODE END WHILE */
 135:Core/Src/main.c **** 
 136:Core/Src/main.c ****     /* USER CODE BEGIN 3 */
 137:Core/Src/main.c ****   }
 138:Core/Src/main.c ****   /* USER CODE END 3 */
 139:Core/Src/main.c **** }
 140:Core/Src/main.c **** 
 141:Core/Src/main.c **** /**
 142:Core/Src/main.c ****   * @brief System Clock Configuration
 143:Core/Src/main.c ****   * @retval None
 144:Core/Src/main.c ****   */
 145:Core/Src/main.c **** void SystemClock_Config(void)
 146:Core/Src/main.c **** {
 147:Core/Src/main.c ****   RCC_OscInitTypeDef RCC_OscInitStruct = {0};
ARM GAS  C:\Users\jonat\AppData\Local\Temp\ccmYXKG7.s 			page 4


 148:Core/Src/main.c ****   RCC_ClkInitTypeDef RCC_ClkInitStruct = {0};
 149:Core/Src/main.c **** 
 150:Core/Src/main.c ****   /** Initializes the RCC Oscillators according to the specified parameters
 151:Core/Src/main.c ****   * in the RCC_OscInitTypeDef structure.
 152:Core/Src/main.c ****   */
 153:Core/Src/main.c ****   RCC_OscInitStruct.OscillatorType = RCC_OSCILLATORTYPE_HSI;
 154:Core/Src/main.c ****   RCC_OscInitStruct.HSIState = RCC_HSI_ON;
 155:Core/Src/main.c ****   RCC_OscInitStruct.HSICalibrationValue = RCC_HSICALIBRATION_DEFAULT;
 156:Core/Src/main.c ****   RCC_OscInitStruct.PLL.PLLState = RCC_PLL_NONE;
 157:Core/Src/main.c ****   if (HAL_RCC_OscConfig(&RCC_OscInitStruct) != HAL_OK)
 158:Core/Src/main.c ****   {
 159:Core/Src/main.c ****     Error_Handler();
 160:Core/Src/main.c ****   }
 161:Core/Src/main.c **** 
 162:Core/Src/main.c ****   /** Initializes the CPU, AHB and APB buses clocks
 163:Core/Src/main.c ****   */
 164:Core/Src/main.c ****   RCC_ClkInitStruct.ClockType = RCC_CLOCKTYPE_HCLK|RCC_CLOCKTYPE_SYSCLK
 165:Core/Src/main.c ****                               |RCC_CLOCKTYPE_PCLK1;
 166:Core/Src/main.c ****   RCC_ClkInitStruct.SYSCLKSource = RCC_SYSCLKSOURCE_HSI;
 167:Core/Src/main.c ****   RCC_ClkInitStruct.AHBCLKDivider = RCC_SYSCLK_DIV1;
 168:Core/Src/main.c ****   RCC_ClkInitStruct.APB1CLKDivider = RCC_HCLK_DIV1;
 169:Core/Src/main.c **** 
 170:Core/Src/main.c ****   if (HAL_RCC_ClockConfig(&RCC_ClkInitStruct, FLASH_LATENCY_0) != HAL_OK)
 171:Core/Src/main.c ****   {
 172:Core/Src/main.c ****     Error_Handler();
 173:Core/Src/main.c ****   }
 174:Core/Src/main.c **** }
 175:Core/Src/main.c **** 
 176:Core/Src/main.c **** /**
 177:Core/Src/main.c ****   * @brief GPIO Initialization Function
 178:Core/Src/main.c ****   * @param None
 179:Core/Src/main.c ****   * @retval None
 180:Core/Src/main.c ****   */
 181:Core/Src/main.c **** static void MX_GPIO_Init(void)
 182:Core/Src/main.c **** {
  26              		.loc 1 182 1 view -0
  27              		.cfi_startproc
  28              		@ args = 0, pretend = 0, frame = 32
  29              		@ frame_needed = 0, uses_anonymous_args = 0
  30 0000 10B5     		push	{r4, lr}
  31              	.LCFI0:
  32              		.cfi_def_cfa_offset 8
  33              		.cfi_offset 4, -8
  34              		.cfi_offset 14, -4
  35 0002 88B0     		sub	sp, sp, #32
  36              	.LCFI1:
  37              		.cfi_def_cfa_offset 40
 183:Core/Src/main.c ****   GPIO_InitTypeDef GPIO_InitStruct = {0};
  38              		.loc 1 183 3 view .LVU1
  39              		.loc 1 183 20 is_stmt 0 view .LVU2
  40 0004 1422     		movs	r2, #20
  41 0006 0021     		movs	r1, #0
  42 0008 03A8     		add	r0, sp, #12
  43 000a FFF7FEFF 		bl	memset
  44              	.LVL0:
 184:Core/Src/main.c **** /* USER CODE BEGIN MX_GPIO_Init_1 */
 185:Core/Src/main.c **** /* USER CODE END MX_GPIO_Init_1 */
ARM GAS  C:\Users\jonat\AppData\Local\Temp\ccmYXKG7.s 			page 5


 186:Core/Src/main.c **** 
 187:Core/Src/main.c ****   /* GPIO Ports Clock Enable */
 188:Core/Src/main.c ****   __HAL_RCC_GPIOB_CLK_ENABLE();
  45              		.loc 1 188 3 is_stmt 1 view .LVU3
  46              	.LBB4:
  47              		.loc 1 188 3 view .LVU4
  48              		.loc 1 188 3 view .LVU5
  49 000e 134B     		ldr	r3, .L2
  50 0010 5A69     		ldr	r2, [r3, #20]
  51 0012 8021     		movs	r1, #128
  52 0014 C902     		lsls	r1, r1, #11
  53 0016 0A43     		orrs	r2, r1
  54 0018 5A61     		str	r2, [r3, #20]
  55              		.loc 1 188 3 view .LVU6
  56 001a 5A69     		ldr	r2, [r3, #20]
  57 001c 0A40     		ands	r2, r1
  58 001e 0192     		str	r2, [sp, #4]
  59              		.loc 1 188 3 view .LVU7
  60 0020 019A     		ldr	r2, [sp, #4]
  61              	.LBE4:
  62              		.loc 1 188 3 view .LVU8
 189:Core/Src/main.c ****   __HAL_RCC_GPIOA_CLK_ENABLE();
  63              		.loc 1 189 3 view .LVU9
  64              	.LBB5:
  65              		.loc 1 189 3 view .LVU10
  66              		.loc 1 189 3 view .LVU11
  67 0022 5A69     		ldr	r2, [r3, #20]
  68 0024 8021     		movs	r1, #128
  69 0026 8902     		lsls	r1, r1, #10
  70 0028 0A43     		orrs	r2, r1
  71 002a 5A61     		str	r2, [r3, #20]
  72              		.loc 1 189 3 view .LVU12
  73 002c 5B69     		ldr	r3, [r3, #20]
  74 002e 0B40     		ands	r3, r1
  75 0030 0293     		str	r3, [sp, #8]
  76              		.loc 1 189 3 view .LVU13
  77 0032 029B     		ldr	r3, [sp, #8]
  78              	.LBE5:
  79              		.loc 1 189 3 view .LVU14
 190:Core/Src/main.c **** 
 191:Core/Src/main.c ****   /*Configure GPIO pin Output Level */
 192:Core/Src/main.c ****   HAL_GPIO_WritePin(GPIOB, GPIO_PIN_0|GPIO_PIN_1, GPIO_PIN_RESET);
  80              		.loc 1 192 3 view .LVU15
  81 0034 0A4C     		ldr	r4, .L2+4
  82 0036 0022     		movs	r2, #0
  83 0038 0321     		movs	r1, #3
  84 003a 2000     		movs	r0, r4
  85 003c FFF7FEFF 		bl	HAL_GPIO_WritePin
  86              	.LVL1:
 193:Core/Src/main.c **** 
 194:Core/Src/main.c ****   /*Configure GPIO pins : PB0 PB1 */
 195:Core/Src/main.c ****   GPIO_InitStruct.Pin = GPIO_PIN_0|GPIO_PIN_1;
  87              		.loc 1 195 3 view .LVU16
  88              		.loc 1 195 23 is_stmt 0 view .LVU17
  89 0040 0323     		movs	r3, #3
  90 0042 0393     		str	r3, [sp, #12]
 196:Core/Src/main.c ****   GPIO_InitStruct.Mode = GPIO_MODE_OUTPUT_PP;
ARM GAS  C:\Users\jonat\AppData\Local\Temp\ccmYXKG7.s 			page 6


  91              		.loc 1 196 3 is_stmt 1 view .LVU18
  92              		.loc 1 196 24 is_stmt 0 view .LVU19
  93 0044 023B     		subs	r3, r3, #2
  94 0046 0493     		str	r3, [sp, #16]
 197:Core/Src/main.c ****   GPIO_InitStruct.Pull = GPIO_NOPULL;
  95              		.loc 1 197 3 is_stmt 1 view .LVU20
  96              		.loc 1 197 24 is_stmt 0 view .LVU21
  97 0048 0023     		movs	r3, #0
  98 004a 0593     		str	r3, [sp, #20]
 198:Core/Src/main.c ****   GPIO_InitStruct.Speed = GPIO_SPEED_FREQ_LOW;
  99              		.loc 1 198 3 is_stmt 1 view .LVU22
 100              		.loc 1 198 25 is_stmt 0 view .LVU23
 101 004c 0693     		str	r3, [sp, #24]
 199:Core/Src/main.c ****   HAL_GPIO_Init(GPIOB, &GPIO_InitStruct);
 102              		.loc 1 199 3 is_stmt 1 view .LVU24
 103 004e 03A9     		add	r1, sp, #12
 104 0050 2000     		movs	r0, r4
 105 0052 FFF7FEFF 		bl	HAL_GPIO_Init
 106              	.LVL2:
 200:Core/Src/main.c **** 
 201:Core/Src/main.c **** /* USER CODE BEGIN MX_GPIO_Init_2 */
 202:Core/Src/main.c **** /* USER CODE END MX_GPIO_Init_2 */
 203:Core/Src/main.c **** }
 107              		.loc 1 203 1 is_stmt 0 view .LVU25
 108 0056 08B0     		add	sp, sp, #32
 109              		@ sp needed
 110 0058 10BD     		pop	{r4, pc}
 111              	.L3:
 112 005a C046     		.align	2
 113              	.L2:
 114 005c 00100240 		.word	1073876992
 115 0060 00040048 		.word	1207960576
 116              		.cfi_endproc
 117              	.LFE42:
 119              		.global	__aeabi_idiv
 120              		.section	.text.calculate_mandelbrot_fixed_point_arithmetic,"ax",%progbits
 121              		.align	1
 122              		.global	calculate_mandelbrot_fixed_point_arithmetic
 123              		.syntax unified
 124              		.code	16
 125              		.thumb_func
 127              	calculate_mandelbrot_fixed_point_arithmetic:
 128              	.LVL3:
 129              	.LFB43:
 204:Core/Src/main.c **** 
 205:Core/Src/main.c **** /* USER CODE BEGIN 4 */
 206:Core/Src/main.c **** //TODO: Mandelbroat using variable type integers and fixed point arithmetic
 207:Core/Src/main.c **** uint64_t calculate_mandelbrot_fixed_point_arithmetic(int width, int height, int max_iterations){
 130              		.loc 1 207 96 is_stmt 1 view -0
 131              		.cfi_startproc
 132              		@ args = 0, pretend = 0, frame = 16
 133              		@ frame_needed = 0, uses_anonymous_args = 0
 134              		.loc 1 207 96 is_stmt 0 view .LVU27
 135 0000 F0B5     		push	{r4, r5, r6, r7, lr}
 136              	.LCFI2:
 137              		.cfi_def_cfa_offset 20
 138              		.cfi_offset 4, -20
ARM GAS  C:\Users\jonat\AppData\Local\Temp\ccmYXKG7.s 			page 7


 139              		.cfi_offset 5, -16
 140              		.cfi_offset 6, -12
 141              		.cfi_offset 7, -8
 142              		.cfi_offset 14, -4
 143 0002 DE46     		mov	lr, fp
 144 0004 5746     		mov	r7, r10
 145 0006 4E46     		mov	r6, r9
 146 0008 4546     		mov	r5, r8
 147 000a E0B5     		push	{r5, r6, r7, lr}
 148              	.LCFI3:
 149              		.cfi_def_cfa_offset 36
 150              		.cfi_offset 8, -36
 151              		.cfi_offset 9, -32
 152              		.cfi_offset 10, -28
 153              		.cfi_offset 11, -24
 154 000c 85B0     		sub	sp, sp, #20
 155              	.LCFI4:
 156              		.cfi_def_cfa_offset 56
 157 000e 1500     		movs	r5, r2
 208:Core/Src/main.c ****   uint64_t mandelbrot_sum = 0;
 158              		.loc 1 208 3 is_stmt 1 view .LVU28
 159              	.LVL4:
 209:Core/Src/main.c ****     //TODO: Complete the function implementation
 210:Core/Src/main.c ****   	  checksum = 0;
 160              		.loc 1 210 6 view .LVU29
 161              		.loc 1 210 15 is_stmt 0 view .LVU30
 162 0010 404C     		ldr	r4, .L15
 163 0012 0022     		movs	r2, #0
 164              	.LVL5:
 165              		.loc 1 210 15 view .LVU31
 166 0014 0023     		movs	r3, #0
 167 0016 2260     		str	r2, [r4]
 168 0018 6360     		str	r3, [r4, #4]
 211:Core/Src/main.c ****   	  int x0=0, y0=0, xi=0, yi=0, iteration=0, x=0, y=0, temp=0;
 169              		.loc 1 211 6 is_stmt 1 view .LVU32
 170              	.LVL6:
 212:Core/Src/main.c ****   	  // Defining scaling factor
 213:Core/Src/main.c ****   	  const int S = 1000000;
 171              		.loc 1 213 6 view .LVU33
 214:Core/Src/main.c ****   	  //Scaling height and width
 215:Core/Src/main.c ****   	  height = height*S;
 172              		.loc 1 215 6 view .LVU34
 173              		.loc 1 215 13 is_stmt 0 view .LVU35
 174 001a 4A01     		lsls	r2, r1, #5
 175 001c 521A     		subs	r2, r2, r1
 176 001e 9301     		lsls	r3, r2, #6
 177 0020 9B1A     		subs	r3, r3, r2
 178 0022 DB00     		lsls	r3, r3, #3
 179 0024 5B18     		adds	r3, r3, r1
 180 0026 9B01     		lsls	r3, r3, #6
 181 0028 9946     		mov	r9, r3
 182              	.LVL7:
 216:Core/Src/main.c ****   	  width = width*S;
 183              		.loc 1 216 6 is_stmt 1 view .LVU36
 184              		.loc 1 216 12 is_stmt 0 view .LVU37
 185 002a 4301     		lsls	r3, r0, #5
 186              	.LVL8:
ARM GAS  C:\Users\jonat\AppData\Local\Temp\ccmYXKG7.s 			page 8


 187              		.loc 1 216 12 view .LVU38
 188 002c 1B1A     		subs	r3, r3, r0
 189 002e 9F01     		lsls	r7, r3, #6
 190 0030 FF1A     		subs	r7, r7, r3
 191 0032 FF00     		lsls	r7, r7, #3
 192 0034 3F18     		adds	r7, r7, r0
 193 0036 BB01     		lsls	r3, r7, #6
 194 0038 9B46     		mov	fp, r3
 195              	.LVL9:
 217:Core/Src/main.c **** 
 218:Core/Src/main.c ****   	  for(y = 0; y < height - 1; y = y + 1*S){
 196              		.loc 1 218 6 is_stmt 1 view .LVU39
 197              		.loc 1 218 12 is_stmt 0 view .LVU40
 198 003a 0023     		movs	r3, #0
 199              	.LVL10:
 200              		.loc 1 218 12 view .LVU41
 201 003c 9846     		mov	r8, r3
 202 003e 5F46     		mov	r7, fp
 203              		.loc 1 218 6 view .LVU42
 204 0040 56E0     		b	.L5
 205              	.LVL11:
 206              	.L7:
 219:Core/Src/main.c ****   		  for(x = 0; x < width - 1; x = x + 1*S){
 220:Core/Src/main.c ****   			x0 = (((x/width)*S)*3500000)/S - 2500000;
 221:Core/Src/main.c ****   			y0 = (((y/height)*S)*2000000)/S - 1000000;
 222:Core/Src/main.c ****   			xi = 0;
 223:Core/Src/main.c ****   			yi = 0;
 224:Core/Src/main.c ****   			iteration = 0;
 225:Core/Src/main.c **** 
 226:Core/Src/main.c ****   			while((iteration < max_iterations)&(xi^2 + yi^2 <= 4)){
 207              		.loc 1 226 47 view .LVU43
 208 0042 8A1C     		adds	r2, r1, #2
 209              		.loc 1 226 44 view .LVU44
 210 0044 5A40     		eors	r2, r3
 211              		.loc 1 226 51 view .LVU45
 212 0046 0126     		movs	r6, #1
 213 0048 7240     		eors	r2, r6
 214              		.loc 1 226 12 view .LVU46
 215 004a 2242     		tst	r2, r4
 216 004c 0ED0     		beq	.L12
 227:Core/Src/main.c ****   				temp = xi^2 - yi^2;
 217              		.loc 1 227 7 is_stmt 1 view .LVU47
 218              		.loc 1 227 19 is_stmt 0 view .LVU48
 219 004e 0224     		movs	r4, #2
 220 0050 621A     		subs	r2, r4, r1
 221              		.loc 1 227 16 view .LVU49
 222 0052 5A40     		eors	r2, r3
 223              		.loc 1 227 12 view .LVU50
 224 0054 6240     		eors	r2, r4
 225              	.LVL12:
 228:Core/Src/main.c ****   				yi = 2*xi*yi +y0;
 226              		.loc 1 228 7 is_stmt 1 view .LVU51
 227              		.loc 1 228 16 is_stmt 0 view .LVU52
 228 0056 4B43     		muls	r3, r1
 229              	.LVL13:
 230              		.loc 1 228 16 view .LVU53
 231 0058 5B00     		lsls	r3, r3, #1
ARM GAS  C:\Users\jonat\AppData\Local\Temp\ccmYXKG7.s 			page 9


 232              		.loc 1 228 10 view .LVU54
 233 005a D919     		adds	r1, r3, r7
 234              	.LVL14:
 229:Core/Src/main.c ****   				xi = temp +x0;
 235              		.loc 1 229 7 is_stmt 1 view .LVU55
 236              		.loc 1 229 10 is_stmt 0 view .LVU56
 237 005c 019B     		ldr	r3, [sp, #4]
 238 005e 9B18     		adds	r3, r3, r2
 239              	.LVL15:
 230:Core/Src/main.c ****   				iteration = iteration + 1;
 240              		.loc 1 230 7 is_stmt 1 view .LVU57
 241              		.loc 1 230 17 is_stmt 0 view .LVU58
 242 0060 0130     		adds	r0, r0, #1
 243              	.LVL16:
 244              	.L6:
 226:Core/Src/main.c ****   				temp = xi^2 - yi^2;
 245              		.loc 1 226 12 is_stmt 1 view .LVU59
 226:Core/Src/main.c ****   				temp = xi^2 - yi^2;
 246              		.loc 1 226 23 is_stmt 0 view .LVU60
 247 0062 0124     		movs	r4, #1
 248 0064 A842     		cmp	r0, r5
 249 0066 ECDB     		blt	.L7
 250 0068 0024     		movs	r4, #0
 251 006a EAE7     		b	.L7
 252              	.L12:
 231:Core/Src/main.c ****   			};
 232:Core/Src/main.c ****   			checksum = checksum + iteration;
 253              		.loc 1 232 26 view .LVU61
 254 006c 6646     		mov	r6, ip
 255 006e AB46     		mov	fp, r5
 256 0070 5746     		mov	r7, r10
 257              	.LVL17:
 231:Core/Src/main.c ****   			};
 258              		.loc 1 231 7 is_stmt 1 view .LVU62
 259              		.loc 1 232 6 view .LVU63
 260              		.loc 1 232 26 is_stmt 0 view .LVU64
 261 0072 2849     		ldr	r1, .L15
 262              	.LVL18:
 263              		.loc 1 232 26 view .LVU65
 264 0074 0290     		str	r0, [sp, #8]
 265 0076 C317     		asrs	r3, r0, #31
 266              	.LVL19:
 267              		.loc 1 232 26 view .LVU66
 268 0078 0393     		str	r3, [sp, #12]
 269 007a 0A68     		ldr	r2, [r1]
 270 007c 4B68     		ldr	r3, [r1, #4]
 271 007e 029C     		ldr	r4, [sp, #8]
 272 0080 039D     		ldr	r5, [sp, #12]
 273 0082 1219     		adds	r2, r2, r4
 274 0084 6B41     		adcs	r3, r3, r5
 275              		.loc 1 232 15 view .LVU67
 276 0086 0A60     		str	r2, [r1]
 277 0088 4B60     		str	r3, [r1, #4]
 219:Core/Src/main.c ****   			x0 = (((x/width)*S)*3500000)/S - 2500000;
 278              		.loc 1 219 35 is_stmt 1 discriminator 2 view .LVU68
 279 008a 234B     		ldr	r3, .L15+4
 280 008c 9C46     		mov	ip, r3
ARM GAS  C:\Users\jonat\AppData\Local\Temp\ccmYXKG7.s 			page 10


 281              	.LVL20:
 219:Core/Src/main.c ****   			x0 = (((x/width)*S)*3500000)/S - 2500000;
 282              		.loc 1 219 35 is_stmt 0 discriminator 2 view .LVU69
 283 008e 6644     		add	r6, r6, ip
 284              	.LVL21:
 285              	.L10:
 219:Core/Src/main.c ****   			x0 = (((x/width)*S)*3500000)/S - 2500000;
 286              		.loc 1 219 20 is_stmt 1 discriminator 1 view .LVU70
 219:Core/Src/main.c ****   			x0 = (((x/width)*S)*3500000)/S - 2500000;
 287              		.loc 1 219 28 is_stmt 0 discriminator 1 view .LVU71
 288 0090 7B1E     		subs	r3, r7, #1
 219:Core/Src/main.c ****   			x0 = (((x/width)*S)*3500000)/S - 2500000;
 289              		.loc 1 219 20 discriminator 1 view .LVU72
 290 0092 B342     		cmp	r3, r6
 291 0094 28DD     		ble	.L13
 220:Core/Src/main.c ****   			y0 = (((y/height)*S)*2000000)/S - 1000000;
 292              		.loc 1 220 6 is_stmt 1 view .LVU73
 220:Core/Src/main.c ****   			y0 = (((y/height)*S)*2000000)/S - 1000000;
 293              		.loc 1 220 15 is_stmt 0 view .LVU74
 294 0096 3900     		movs	r1, r7
 295 0098 3000     		movs	r0, r6
 296 009a FFF7FEFF 		bl	__aeabi_idiv
 297              	.LVL22:
 220:Core/Src/main.c ****   			y0 = (((y/height)*S)*2000000)/S - 1000000;
 298              		.loc 1 220 22 view .LVU75
 299 009e 4201     		lsls	r2, r0, #5
 300 00a0 121A     		subs	r2, r2, r0
 301 00a2 9301     		lsls	r3, r2, #6
 302 00a4 9B1A     		subs	r3, r3, r2
 303 00a6 DB00     		lsls	r3, r3, #3
 304 00a8 1B18     		adds	r3, r3, r0
 305 00aa 9B01     		lsls	r3, r3, #6
 220:Core/Src/main.c ****   			y0 = (((y/height)*S)*2000000)/S - 1000000;
 306              		.loc 1 220 25 view .LVU76
 307 00ac 1B48     		ldr	r0, .L15+8
 308 00ae 5843     		muls	r0, r3
 220:Core/Src/main.c ****   			y0 = (((y/height)*S)*2000000)/S - 1000000;
 309              		.loc 1 220 34 view .LVU77
 310 00b0 1949     		ldr	r1, .L15+4
 311 00b2 FFF7FEFF 		bl	__aeabi_idiv
 312              	.LVL23:
 220:Core/Src/main.c ****   			y0 = (((y/height)*S)*2000000)/S - 1000000;
 313              		.loc 1 220 9 view .LVU78
 314 00b6 1A4B     		ldr	r3, .L15+12
 315 00b8 C418     		adds	r4, r0, r3
 316              	.LVL24:
 221:Core/Src/main.c ****   			xi = 0;
 317              		.loc 1 221 6 is_stmt 1 view .LVU79
 221:Core/Src/main.c ****   			xi = 0;
 318              		.loc 1 221 15 is_stmt 0 view .LVU80
 319 00ba 4946     		mov	r1, r9
 320 00bc 4046     		mov	r0, r8
 321 00be FFF7FEFF 		bl	__aeabi_idiv
 322              	.LVL25:
 221:Core/Src/main.c ****   			xi = 0;
 323              		.loc 1 221 35 view .LVU81
 324 00c2 4201     		lsls	r2, r0, #5
ARM GAS  C:\Users\jonat\AppData\Local\Temp\ccmYXKG7.s 			page 11


 325 00c4 121A     		subs	r2, r2, r0
 326 00c6 9301     		lsls	r3, r2, #6
 327 00c8 9B1A     		subs	r3, r3, r2
 328 00ca DB00     		lsls	r3, r3, #3
 329 00cc 1B18     		adds	r3, r3, r0
 330 00ce DB01     		lsls	r3, r3, #7
 221:Core/Src/main.c ****   			xi = 0;
 331              		.loc 1 221 9 view .LVU82
 332 00d0 144A     		ldr	r2, .L15+16
 333 00d2 9446     		mov	ip, r2
 334 00d4 9C44     		add	ip, ip, r3
 335              	.LVL26:
 222:Core/Src/main.c ****   			yi = 0;
 336              		.loc 1 222 6 is_stmt 1 view .LVU83
 223:Core/Src/main.c ****   			iteration = 0;
 337              		.loc 1 223 6 view .LVU84
 224:Core/Src/main.c **** 
 338              		.loc 1 224 6 view .LVU85
 226:Core/Src/main.c ****   				temp = xi^2 - yi^2;
 339              		.loc 1 226 6 view .LVU86
 224:Core/Src/main.c **** 
 340              		.loc 1 224 16 is_stmt 0 view .LVU87
 341 00d6 0020     		movs	r0, #0
 223:Core/Src/main.c ****   			iteration = 0;
 342              		.loc 1 223 9 view .LVU88
 343 00d8 0021     		movs	r1, #0
 222:Core/Src/main.c ****   			yi = 0;
 344              		.loc 1 222 9 view .LVU89
 345 00da 0023     		movs	r3, #0
 346 00dc 5D46     		mov	r5, fp
 347              	.LVL27:
 222:Core/Src/main.c ****   			yi = 0;
 348              		.loc 1 222 9 view .LVU90
 349 00de BA46     		mov	r10, r7
 350 00e0 6746     		mov	r7, ip
 351              	.LVL28:
 222:Core/Src/main.c ****   			yi = 0;
 352              		.loc 1 222 9 view .LVU91
 353 00e2 B446     		mov	ip, r6
 354              	.LVL29:
 222:Core/Src/main.c ****   			yi = 0;
 355              		.loc 1 222 9 view .LVU92
 356 00e4 0194     		str	r4, [sp, #4]
 226:Core/Src/main.c ****   				temp = xi^2 - yi^2;
 357              		.loc 1 226 11 view .LVU93
 358 00e6 BCE7     		b	.L6
 359              	.LVL30:
 360              	.L13:
 218:Core/Src/main.c ****   		  for(x = 0; x < width - 1; x = x + 1*S){
 361              		.loc 1 218 35 discriminator 2 view .LVU94
 362 00e8 5D46     		mov	r5, fp
 363              	.LVL31:
 233:Core/Src/main.c ****   		  };
 364              		.loc 1 233 8 is_stmt 1 view .LVU95
 218:Core/Src/main.c ****   		  for(x = 0; x < width - 1; x = x + 1*S){
 365              		.loc 1 218 35 discriminator 2 view .LVU96
 366 00ea 0B4B     		ldr	r3, .L15+4
ARM GAS  C:\Users\jonat\AppData\Local\Temp\ccmYXKG7.s 			page 12


 367 00ec 9C46     		mov	ip, r3
 368 00ee E044     		add	r8, r8, ip
 369              	.LVL32:
 370              	.L5:
 218:Core/Src/main.c ****   		  for(x = 0; x < width - 1; x = x + 1*S){
 371              		.loc 1 218 19 discriminator 1 view .LVU97
 218:Core/Src/main.c ****   		  for(x = 0; x < width - 1; x = x + 1*S){
 372              		.loc 1 218 28 is_stmt 0 discriminator 1 view .LVU98
 373 00f0 4B46     		mov	r3, r9
 374 00f2 013B     		subs	r3, r3, #1
 218:Core/Src/main.c ****   		  for(x = 0; x < width - 1; x = x + 1*S){
 375              		.loc 1 218 19 discriminator 1 view .LVU99
 376 00f4 4345     		cmp	r3, r8
 377 00f6 02DD     		ble	.L14
 219:Core/Src/main.c ****   			x0 = (((x/width)*S)*3500000)/S - 2500000;
 378              		.loc 1 219 13 view .LVU100
 379 00f8 0026     		movs	r6, #0
 380 00fa AB46     		mov	fp, r5
 381 00fc C8E7     		b	.L10
 382              	.L14:
 234:Core/Src/main.c ****   	  };
 383              		.loc 1 234 7 is_stmt 1 view .LVU101
 235:Core/Src/main.c ****   	  mandelbrot_sum = checksum;
 384              		.loc 1 235 6 view .LVU102
 385              		.loc 1 235 21 is_stmt 0 view .LVU103
 386 00fe 054B     		ldr	r3, .L15
 387 0100 1868     		ldr	r0, [r3]
 388 0102 5968     		ldr	r1, [r3, #4]
 389              	.LVL33:
 236:Core/Src/main.c ****     return mandelbrot_sum;
 390              		.loc 1 236 5 is_stmt 1 view .LVU104
 237:Core/Src/main.c **** }
 391              		.loc 1 237 1 is_stmt 0 view .LVU105
 392 0104 05B0     		add	sp, sp, #20
 393              		@ sp needed
 394              	.LVL34:
 395              	.LVL35:
 396              	.LVL36:
 397              	.LVL37:
 398              		.loc 1 237 1 view .LVU106
 399 0106 F0BC     		pop	{r4, r5, r6, r7}
 400 0108 BB46     		mov	fp, r7
 401 010a B246     		mov	r10, r6
 402 010c A946     		mov	r9, r5
 403 010e A046     		mov	r8, r4
 404 0110 F0BD     		pop	{r4, r5, r6, r7, pc}
 405              	.L16:
 406 0112 C046     		.align	2
 407              	.L15:
 408 0114 00000000 		.word	checksum
 409 0118 40420F00 		.word	1000000
 410 011c E0673500 		.word	3500000
 411 0120 60DAD9FF 		.word	-2500000
 412 0124 C0BDF0FF 		.word	-1000000
 413              		.cfi_endproc
 414              	.LFE43:
 416              		.section	.text.calculate_mandelbrot_double,"ax",%progbits
ARM GAS  C:\Users\jonat\AppData\Local\Temp\ccmYXKG7.s 			page 13


 417              		.align	1
 418              		.global	calculate_mandelbrot_double
 419              		.syntax unified
 420              		.code	16
 421              		.thumb_func
 423              	calculate_mandelbrot_double:
 424              	.LVL38:
 425              	.LFB44:
 238:Core/Src/main.c **** 
 239:Core/Src/main.c **** //TODO: Mandelbroat using variable type double
 240:Core/Src/main.c **** uint64_t calculate_mandelbrot_double(int width, int height, int max_iterations){
 426              		.loc 1 240 80 is_stmt 1 view -0
 427              		.cfi_startproc
 428              		@ args = 0, pretend = 0, frame = 0
 429              		@ frame_needed = 0, uses_anonymous_args = 0
 430              		@ link register save eliminated.
 241:Core/Src/main.c ****     uint64_t mandelbrot_sum = 0;
 431              		.loc 1 241 5 view .LVU108
 242:Core/Src/main.c ****     //TODO: Complete the function implementation
 243:Core/Src/main.c ****     
 244:Core/Src/main.c ****     return mandelbrot_sum;
 432              		.loc 1 244 5 view .LVU109
 245:Core/Src/main.c **** }
 433              		.loc 1 245 1 is_stmt 0 view .LVU110
 434 0000 0020     		movs	r0, #0
 435              	.LVL39:
 436              		.loc 1 245 1 view .LVU111
 437 0002 0021     		movs	r1, #0
 438              	.LVL40:
 439              		.loc 1 245 1 view .LVU112
 440              		@ sp needed
 441 0004 7047     		bx	lr
 442              		.cfi_endproc
 443              	.LFE44:
 445              		.section	.text.Error_Handler,"ax",%progbits
 446              		.align	1
 447              		.global	Error_Handler
 448              		.syntax unified
 449              		.code	16
 450              		.thumb_func
 452              	Error_Handler:
 453              	.LFB45:
 246:Core/Src/main.c **** 
 247:Core/Src/main.c **** /* USER CODE END 4 */
 248:Core/Src/main.c **** 
 249:Core/Src/main.c **** /**
 250:Core/Src/main.c ****   * @brief  This function is executed in case of error occurrence.
 251:Core/Src/main.c ****   * @retval None
 252:Core/Src/main.c ****   */
 253:Core/Src/main.c **** void Error_Handler(void)
 254:Core/Src/main.c **** {
 454              		.loc 1 254 1 is_stmt 1 view -0
 455              		.cfi_startproc
 456              		@ Volatile: function does not return.
 457              		@ args = 0, pretend = 0, frame = 0
 458              		@ frame_needed = 0, uses_anonymous_args = 0
 459              		@ link register save eliminated.
ARM GAS  C:\Users\jonat\AppData\Local\Temp\ccmYXKG7.s 			page 14


 255:Core/Src/main.c ****   /* USER CODE BEGIN Error_Handler_Debug */
 256:Core/Src/main.c ****   /* User can add his own implementation to report the HAL error return state */
 257:Core/Src/main.c ****   __disable_irq();
 460              		.loc 1 257 3 view .LVU114
 461              	.LBB6:
 462              	.LBI6:
 463              		.file 2 "Drivers/CMSIS/Include/cmsis_gcc.h"
   1:Drivers/CMSIS/Include/cmsis_gcc.h **** /**************************************************************************//**
   2:Drivers/CMSIS/Include/cmsis_gcc.h ****  * @file     cmsis_gcc.h
   3:Drivers/CMSIS/Include/cmsis_gcc.h ****  * @brief    CMSIS compiler GCC header file
   4:Drivers/CMSIS/Include/cmsis_gcc.h ****  * @version  V5.0.4
   5:Drivers/CMSIS/Include/cmsis_gcc.h ****  * @date     09. April 2018
   6:Drivers/CMSIS/Include/cmsis_gcc.h ****  ******************************************************************************/
   7:Drivers/CMSIS/Include/cmsis_gcc.h **** /*
   8:Drivers/CMSIS/Include/cmsis_gcc.h ****  * Copyright (c) 2009-2018 Arm Limited. All rights reserved.
   9:Drivers/CMSIS/Include/cmsis_gcc.h ****  *
  10:Drivers/CMSIS/Include/cmsis_gcc.h ****  * SPDX-License-Identifier: Apache-2.0
  11:Drivers/CMSIS/Include/cmsis_gcc.h ****  *
  12:Drivers/CMSIS/Include/cmsis_gcc.h ****  * Licensed under the Apache License, Version 2.0 (the License); you may
  13:Drivers/CMSIS/Include/cmsis_gcc.h ****  * not use this file except in compliance with the License.
  14:Drivers/CMSIS/Include/cmsis_gcc.h ****  * You may obtain a copy of the License at
  15:Drivers/CMSIS/Include/cmsis_gcc.h ****  *
  16:Drivers/CMSIS/Include/cmsis_gcc.h ****  * www.apache.org/licenses/LICENSE-2.0
  17:Drivers/CMSIS/Include/cmsis_gcc.h ****  *
  18:Drivers/CMSIS/Include/cmsis_gcc.h ****  * Unless required by applicable law or agreed to in writing, software
  19:Drivers/CMSIS/Include/cmsis_gcc.h ****  * distributed under the License is distributed on an AS IS BASIS, WITHOUT
  20:Drivers/CMSIS/Include/cmsis_gcc.h ****  * WARRANTIES OR CONDITIONS OF ANY KIND, either express or implied.
  21:Drivers/CMSIS/Include/cmsis_gcc.h ****  * See the License for the specific language governing permissions and
  22:Drivers/CMSIS/Include/cmsis_gcc.h ****  * limitations under the License.
  23:Drivers/CMSIS/Include/cmsis_gcc.h ****  */
  24:Drivers/CMSIS/Include/cmsis_gcc.h **** 
  25:Drivers/CMSIS/Include/cmsis_gcc.h **** #ifndef __CMSIS_GCC_H
  26:Drivers/CMSIS/Include/cmsis_gcc.h **** #define __CMSIS_GCC_H
  27:Drivers/CMSIS/Include/cmsis_gcc.h **** 
  28:Drivers/CMSIS/Include/cmsis_gcc.h **** /* ignore some GCC warnings */
  29:Drivers/CMSIS/Include/cmsis_gcc.h **** #pragma GCC diagnostic push
  30:Drivers/CMSIS/Include/cmsis_gcc.h **** #pragma GCC diagnostic ignored "-Wsign-conversion"
  31:Drivers/CMSIS/Include/cmsis_gcc.h **** #pragma GCC diagnostic ignored "-Wconversion"
  32:Drivers/CMSIS/Include/cmsis_gcc.h **** #pragma GCC diagnostic ignored "-Wunused-parameter"
  33:Drivers/CMSIS/Include/cmsis_gcc.h **** 
  34:Drivers/CMSIS/Include/cmsis_gcc.h **** /* Fallback for __has_builtin */
  35:Drivers/CMSIS/Include/cmsis_gcc.h **** #ifndef __has_builtin
  36:Drivers/CMSIS/Include/cmsis_gcc.h ****   #define __has_builtin(x) (0)
  37:Drivers/CMSIS/Include/cmsis_gcc.h **** #endif
  38:Drivers/CMSIS/Include/cmsis_gcc.h **** 
  39:Drivers/CMSIS/Include/cmsis_gcc.h **** /* CMSIS compiler specific defines */
  40:Drivers/CMSIS/Include/cmsis_gcc.h **** #ifndef   __ASM
  41:Drivers/CMSIS/Include/cmsis_gcc.h ****   #define __ASM                                  __asm
  42:Drivers/CMSIS/Include/cmsis_gcc.h **** #endif
  43:Drivers/CMSIS/Include/cmsis_gcc.h **** #ifndef   __INLINE
  44:Drivers/CMSIS/Include/cmsis_gcc.h ****   #define __INLINE                               inline
  45:Drivers/CMSIS/Include/cmsis_gcc.h **** #endif
  46:Drivers/CMSIS/Include/cmsis_gcc.h **** #ifndef   __STATIC_INLINE
  47:Drivers/CMSIS/Include/cmsis_gcc.h ****   #define __STATIC_INLINE                        static inline
  48:Drivers/CMSIS/Include/cmsis_gcc.h **** #endif
  49:Drivers/CMSIS/Include/cmsis_gcc.h **** #ifndef   __STATIC_FORCEINLINE                 
  50:Drivers/CMSIS/Include/cmsis_gcc.h ****   #define __STATIC_FORCEINLINE                   __attribute__((always_inline)) static inline
ARM GAS  C:\Users\jonat\AppData\Local\Temp\ccmYXKG7.s 			page 15


  51:Drivers/CMSIS/Include/cmsis_gcc.h **** #endif                                           
  52:Drivers/CMSIS/Include/cmsis_gcc.h **** #ifndef   __NO_RETURN
  53:Drivers/CMSIS/Include/cmsis_gcc.h ****   #define __NO_RETURN                            __attribute__((__noreturn__))
  54:Drivers/CMSIS/Include/cmsis_gcc.h **** #endif
  55:Drivers/CMSIS/Include/cmsis_gcc.h **** #ifndef   __USED
  56:Drivers/CMSIS/Include/cmsis_gcc.h ****   #define __USED                                 __attribute__((used))
  57:Drivers/CMSIS/Include/cmsis_gcc.h **** #endif
  58:Drivers/CMSIS/Include/cmsis_gcc.h **** #ifndef   __WEAK
  59:Drivers/CMSIS/Include/cmsis_gcc.h ****   #define __WEAK                                 __attribute__((weak))
  60:Drivers/CMSIS/Include/cmsis_gcc.h **** #endif
  61:Drivers/CMSIS/Include/cmsis_gcc.h **** #ifndef   __PACKED
  62:Drivers/CMSIS/Include/cmsis_gcc.h ****   #define __PACKED                               __attribute__((packed, aligned(1)))
  63:Drivers/CMSIS/Include/cmsis_gcc.h **** #endif
  64:Drivers/CMSIS/Include/cmsis_gcc.h **** #ifndef   __PACKED_STRUCT
  65:Drivers/CMSIS/Include/cmsis_gcc.h ****   #define __PACKED_STRUCT                        struct __attribute__((packed, aligned(1)))
  66:Drivers/CMSIS/Include/cmsis_gcc.h **** #endif
  67:Drivers/CMSIS/Include/cmsis_gcc.h **** #ifndef   __PACKED_UNION
  68:Drivers/CMSIS/Include/cmsis_gcc.h ****   #define __PACKED_UNION                         union __attribute__((packed, aligned(1)))
  69:Drivers/CMSIS/Include/cmsis_gcc.h **** #endif
  70:Drivers/CMSIS/Include/cmsis_gcc.h **** #ifndef   __UNALIGNED_UINT32        /* deprecated */
  71:Drivers/CMSIS/Include/cmsis_gcc.h ****   #pragma GCC diagnostic push
  72:Drivers/CMSIS/Include/cmsis_gcc.h ****   #pragma GCC diagnostic ignored "-Wpacked"
  73:Drivers/CMSIS/Include/cmsis_gcc.h ****   #pragma GCC diagnostic ignored "-Wattributes"
  74:Drivers/CMSIS/Include/cmsis_gcc.h ****   struct __attribute__((packed)) T_UINT32 { uint32_t v; };
  75:Drivers/CMSIS/Include/cmsis_gcc.h ****   #pragma GCC diagnostic pop
  76:Drivers/CMSIS/Include/cmsis_gcc.h ****   #define __UNALIGNED_UINT32(x)                  (((struct T_UINT32 *)(x))->v)
  77:Drivers/CMSIS/Include/cmsis_gcc.h **** #endif
  78:Drivers/CMSIS/Include/cmsis_gcc.h **** #ifndef   __UNALIGNED_UINT16_WRITE
  79:Drivers/CMSIS/Include/cmsis_gcc.h ****   #pragma GCC diagnostic push
  80:Drivers/CMSIS/Include/cmsis_gcc.h ****   #pragma GCC diagnostic ignored "-Wpacked"
  81:Drivers/CMSIS/Include/cmsis_gcc.h ****   #pragma GCC diagnostic ignored "-Wattributes"
  82:Drivers/CMSIS/Include/cmsis_gcc.h ****   __PACKED_STRUCT T_UINT16_WRITE { uint16_t v; };
  83:Drivers/CMSIS/Include/cmsis_gcc.h ****   #pragma GCC diagnostic pop
  84:Drivers/CMSIS/Include/cmsis_gcc.h ****   #define __UNALIGNED_UINT16_WRITE(addr, val)    (void)((((struct T_UINT16_WRITE *)(void *)(addr))-
  85:Drivers/CMSIS/Include/cmsis_gcc.h **** #endif
  86:Drivers/CMSIS/Include/cmsis_gcc.h **** #ifndef   __UNALIGNED_UINT16_READ
  87:Drivers/CMSIS/Include/cmsis_gcc.h ****   #pragma GCC diagnostic push
  88:Drivers/CMSIS/Include/cmsis_gcc.h ****   #pragma GCC diagnostic ignored "-Wpacked"
  89:Drivers/CMSIS/Include/cmsis_gcc.h ****   #pragma GCC diagnostic ignored "-Wattributes"
  90:Drivers/CMSIS/Include/cmsis_gcc.h ****   __PACKED_STRUCT T_UINT16_READ { uint16_t v; };
  91:Drivers/CMSIS/Include/cmsis_gcc.h ****   #pragma GCC diagnostic pop
  92:Drivers/CMSIS/Include/cmsis_gcc.h ****   #define __UNALIGNED_UINT16_READ(addr)          (((const struct T_UINT16_READ *)(const void *)(add
  93:Drivers/CMSIS/Include/cmsis_gcc.h **** #endif
  94:Drivers/CMSIS/Include/cmsis_gcc.h **** #ifndef   __UNALIGNED_UINT32_WRITE
  95:Drivers/CMSIS/Include/cmsis_gcc.h ****   #pragma GCC diagnostic push
  96:Drivers/CMSIS/Include/cmsis_gcc.h ****   #pragma GCC diagnostic ignored "-Wpacked"
  97:Drivers/CMSIS/Include/cmsis_gcc.h ****   #pragma GCC diagnostic ignored "-Wattributes"
  98:Drivers/CMSIS/Include/cmsis_gcc.h ****   __PACKED_STRUCT T_UINT32_WRITE { uint32_t v; };
  99:Drivers/CMSIS/Include/cmsis_gcc.h ****   #pragma GCC diagnostic pop
 100:Drivers/CMSIS/Include/cmsis_gcc.h ****   #define __UNALIGNED_UINT32_WRITE(addr, val)    (void)((((struct T_UINT32_WRITE *)(void *)(addr))-
 101:Drivers/CMSIS/Include/cmsis_gcc.h **** #endif
 102:Drivers/CMSIS/Include/cmsis_gcc.h **** #ifndef   __UNALIGNED_UINT32_READ
 103:Drivers/CMSIS/Include/cmsis_gcc.h ****   #pragma GCC diagnostic push
 104:Drivers/CMSIS/Include/cmsis_gcc.h ****   #pragma GCC diagnostic ignored "-Wpacked"
 105:Drivers/CMSIS/Include/cmsis_gcc.h ****   #pragma GCC diagnostic ignored "-Wattributes"
 106:Drivers/CMSIS/Include/cmsis_gcc.h ****   __PACKED_STRUCT T_UINT32_READ { uint32_t v; };
 107:Drivers/CMSIS/Include/cmsis_gcc.h ****   #pragma GCC diagnostic pop
ARM GAS  C:\Users\jonat\AppData\Local\Temp\ccmYXKG7.s 			page 16


 108:Drivers/CMSIS/Include/cmsis_gcc.h ****   #define __UNALIGNED_UINT32_READ(addr)          (((const struct T_UINT32_READ *)(const void *)(add
 109:Drivers/CMSIS/Include/cmsis_gcc.h **** #endif
 110:Drivers/CMSIS/Include/cmsis_gcc.h **** #ifndef   __ALIGNED
 111:Drivers/CMSIS/Include/cmsis_gcc.h ****   #define __ALIGNED(x)                           __attribute__((aligned(x)))
 112:Drivers/CMSIS/Include/cmsis_gcc.h **** #endif
 113:Drivers/CMSIS/Include/cmsis_gcc.h **** #ifndef   __RESTRICT
 114:Drivers/CMSIS/Include/cmsis_gcc.h ****   #define __RESTRICT                             __restrict
 115:Drivers/CMSIS/Include/cmsis_gcc.h **** #endif
 116:Drivers/CMSIS/Include/cmsis_gcc.h **** 
 117:Drivers/CMSIS/Include/cmsis_gcc.h **** 
 118:Drivers/CMSIS/Include/cmsis_gcc.h **** /* ###########################  Core Function Access  ########################### */
 119:Drivers/CMSIS/Include/cmsis_gcc.h **** /** \ingroup  CMSIS_Core_FunctionInterface
 120:Drivers/CMSIS/Include/cmsis_gcc.h ****     \defgroup CMSIS_Core_RegAccFunctions CMSIS Core Register Access Functions
 121:Drivers/CMSIS/Include/cmsis_gcc.h ****   @{
 122:Drivers/CMSIS/Include/cmsis_gcc.h ****  */
 123:Drivers/CMSIS/Include/cmsis_gcc.h **** 
 124:Drivers/CMSIS/Include/cmsis_gcc.h **** /**
 125:Drivers/CMSIS/Include/cmsis_gcc.h ****   \brief   Enable IRQ Interrupts
 126:Drivers/CMSIS/Include/cmsis_gcc.h ****   \details Enables IRQ interrupts by clearing the I-bit in the CPSR.
 127:Drivers/CMSIS/Include/cmsis_gcc.h ****            Can only be executed in Privileged modes.
 128:Drivers/CMSIS/Include/cmsis_gcc.h ****  */
 129:Drivers/CMSIS/Include/cmsis_gcc.h **** __STATIC_FORCEINLINE void __enable_irq(void)
 130:Drivers/CMSIS/Include/cmsis_gcc.h **** {
 131:Drivers/CMSIS/Include/cmsis_gcc.h ****   __ASM volatile ("cpsie i" : : : "memory");
 132:Drivers/CMSIS/Include/cmsis_gcc.h **** }
 133:Drivers/CMSIS/Include/cmsis_gcc.h **** 
 134:Drivers/CMSIS/Include/cmsis_gcc.h **** 
 135:Drivers/CMSIS/Include/cmsis_gcc.h **** /**
 136:Drivers/CMSIS/Include/cmsis_gcc.h ****   \brief   Disable IRQ Interrupts
 137:Drivers/CMSIS/Include/cmsis_gcc.h ****   \details Disables IRQ interrupts by setting the I-bit in the CPSR.
 138:Drivers/CMSIS/Include/cmsis_gcc.h ****            Can only be executed in Privileged modes.
 139:Drivers/CMSIS/Include/cmsis_gcc.h ****  */
 140:Drivers/CMSIS/Include/cmsis_gcc.h **** __STATIC_FORCEINLINE void __disable_irq(void)
 464              		.loc 2 140 27 view .LVU115
 465              	.LBB7:
 141:Drivers/CMSIS/Include/cmsis_gcc.h **** {
 142:Drivers/CMSIS/Include/cmsis_gcc.h ****   __ASM volatile ("cpsid i" : : : "memory");
 466              		.loc 2 142 3 view .LVU116
 467              		.syntax divided
 468              	@ 142 "Drivers/CMSIS/Include/cmsis_gcc.h" 1
 469 0000 72B6     		cpsid i
 470              	@ 0 "" 2
 471              		.thumb
 472              		.syntax unified
 473              	.L19:
 474              	.LBE7:
 475              	.LBE6:
 258:Core/Src/main.c ****   while (1)
 476              		.loc 1 258 3 view .LVU117
 259:Core/Src/main.c ****   {
 260:Core/Src/main.c ****   }
 477              		.loc 1 260 3 view .LVU118
 258:Core/Src/main.c ****   while (1)
 478              		.loc 1 258 9 view .LVU119
 479 0002 FEE7     		b	.L19
 480              		.cfi_endproc
 481              	.LFE45:
ARM GAS  C:\Users\jonat\AppData\Local\Temp\ccmYXKG7.s 			page 17


 483              		.section	.text.SystemClock_Config,"ax",%progbits
 484              		.align	1
 485              		.global	SystemClock_Config
 486              		.syntax unified
 487              		.code	16
 488              		.thumb_func
 490              	SystemClock_Config:
 491              	.LFB41:
 146:Core/Src/main.c ****   RCC_OscInitTypeDef RCC_OscInitStruct = {0};
 492              		.loc 1 146 1 view -0
 493              		.cfi_startproc
 494              		@ args = 0, pretend = 0, frame = 64
 495              		@ frame_needed = 0, uses_anonymous_args = 0
 496 0000 00B5     		push	{lr}
 497              	.LCFI5:
 498              		.cfi_def_cfa_offset 4
 499              		.cfi_offset 14, -4
 500 0002 91B0     		sub	sp, sp, #68
 501              	.LCFI6:
 502              		.cfi_def_cfa_offset 72
 147:Core/Src/main.c ****   RCC_ClkInitTypeDef RCC_ClkInitStruct = {0};
 503              		.loc 1 147 3 view .LVU121
 147:Core/Src/main.c ****   RCC_ClkInitTypeDef RCC_ClkInitStruct = {0};
 504              		.loc 1 147 22 is_stmt 0 view .LVU122
 505 0004 3022     		movs	r2, #48
 506 0006 0021     		movs	r1, #0
 507 0008 04A8     		add	r0, sp, #16
 508 000a FFF7FEFF 		bl	memset
 509              	.LVL41:
 148:Core/Src/main.c **** 
 510              		.loc 1 148 3 is_stmt 1 view .LVU123
 148:Core/Src/main.c **** 
 511              		.loc 1 148 22 is_stmt 0 view .LVU124
 512 000e 1022     		movs	r2, #16
 513 0010 0021     		movs	r1, #0
 514 0012 6846     		mov	r0, sp
 515 0014 FFF7FEFF 		bl	memset
 516              	.LVL42:
 153:Core/Src/main.c ****   RCC_OscInitStruct.HSIState = RCC_HSI_ON;
 517              		.loc 1 153 3 is_stmt 1 view .LVU125
 153:Core/Src/main.c ****   RCC_OscInitStruct.HSIState = RCC_HSI_ON;
 518              		.loc 1 153 36 is_stmt 0 view .LVU126
 519 0018 0223     		movs	r3, #2
 520 001a 0493     		str	r3, [sp, #16]
 154:Core/Src/main.c ****   RCC_OscInitStruct.HSICalibrationValue = RCC_HSICALIBRATION_DEFAULT;
 521              		.loc 1 154 3 is_stmt 1 view .LVU127
 154:Core/Src/main.c ****   RCC_OscInitStruct.HSICalibrationValue = RCC_HSICALIBRATION_DEFAULT;
 522              		.loc 1 154 30 is_stmt 0 view .LVU128
 523 001c 013B     		subs	r3, r3, #1
 524 001e 0793     		str	r3, [sp, #28]
 155:Core/Src/main.c ****   RCC_OscInitStruct.PLL.PLLState = RCC_PLL_NONE;
 525              		.loc 1 155 3 is_stmt 1 view .LVU129
 155:Core/Src/main.c ****   RCC_OscInitStruct.PLL.PLLState = RCC_PLL_NONE;
 526              		.loc 1 155 41 is_stmt 0 view .LVU130
 527 0020 0F33     		adds	r3, r3, #15
 528 0022 0893     		str	r3, [sp, #32]
 156:Core/Src/main.c ****   if (HAL_RCC_OscConfig(&RCC_OscInitStruct) != HAL_OK)
ARM GAS  C:\Users\jonat\AppData\Local\Temp\ccmYXKG7.s 			page 18


 529              		.loc 1 156 3 is_stmt 1 view .LVU131
 157:Core/Src/main.c ****   {
 530              		.loc 1 157 3 view .LVU132
 157:Core/Src/main.c ****   {
 531              		.loc 1 157 7 is_stmt 0 view .LVU133
 532 0024 04A8     		add	r0, sp, #16
 533 0026 FFF7FEFF 		bl	HAL_RCC_OscConfig
 534              	.LVL43:
 157:Core/Src/main.c ****   {
 535              		.loc 1 157 6 discriminator 1 view .LVU134
 536 002a 0028     		cmp	r0, #0
 537 002c 0DD1     		bne	.L23
 164:Core/Src/main.c ****                               |RCC_CLOCKTYPE_PCLK1;
 538              		.loc 1 164 3 is_stmt 1 view .LVU135
 164:Core/Src/main.c ****                               |RCC_CLOCKTYPE_PCLK1;
 539              		.loc 1 164 31 is_stmt 0 view .LVU136
 540 002e 0723     		movs	r3, #7
 541 0030 0093     		str	r3, [sp]
 166:Core/Src/main.c ****   RCC_ClkInitStruct.AHBCLKDivider = RCC_SYSCLK_DIV1;
 542              		.loc 1 166 3 is_stmt 1 view .LVU137
 166:Core/Src/main.c ****   RCC_ClkInitStruct.AHBCLKDivider = RCC_SYSCLK_DIV1;
 543              		.loc 1 166 34 is_stmt 0 view .LVU138
 544 0032 0023     		movs	r3, #0
 545 0034 0193     		str	r3, [sp, #4]
 167:Core/Src/main.c ****   RCC_ClkInitStruct.APB1CLKDivider = RCC_HCLK_DIV1;
 546              		.loc 1 167 3 is_stmt 1 view .LVU139
 167:Core/Src/main.c ****   RCC_ClkInitStruct.APB1CLKDivider = RCC_HCLK_DIV1;
 547              		.loc 1 167 35 is_stmt 0 view .LVU140
 548 0036 0293     		str	r3, [sp, #8]
 168:Core/Src/main.c **** 
 549              		.loc 1 168 3 is_stmt 1 view .LVU141
 168:Core/Src/main.c **** 
 550              		.loc 1 168 36 is_stmt 0 view .LVU142
 551 0038 0393     		str	r3, [sp, #12]
 170:Core/Src/main.c ****   {
 552              		.loc 1 170 3 is_stmt 1 view .LVU143
 170:Core/Src/main.c ****   {
 553              		.loc 1 170 7 is_stmt 0 view .LVU144
 554 003a 0021     		movs	r1, #0
 555 003c 6846     		mov	r0, sp
 556 003e FFF7FEFF 		bl	HAL_RCC_ClockConfig
 557              	.LVL44:
 170:Core/Src/main.c ****   {
 558              		.loc 1 170 6 discriminator 1 view .LVU145
 559 0042 0028     		cmp	r0, #0
 560 0044 03D1     		bne	.L24
 174:Core/Src/main.c **** 
 561              		.loc 1 174 1 view .LVU146
 562 0046 11B0     		add	sp, sp, #68
 563              		@ sp needed
 564 0048 00BD     		pop	{pc}
 565              	.L23:
 159:Core/Src/main.c ****   }
 566              		.loc 1 159 5 is_stmt 1 view .LVU147
 567 004a FFF7FEFF 		bl	Error_Handler
 568              	.LVL45:
 569              	.L24:
ARM GAS  C:\Users\jonat\AppData\Local\Temp\ccmYXKG7.s 			page 19


 172:Core/Src/main.c ****   }
 570              		.loc 1 172 5 view .LVU148
 571 004e FFF7FEFF 		bl	Error_Handler
 572              	.LVL46:
 573              		.cfi_endproc
 574              	.LFE41:
 576              		.section	.rodata.main.str1.4,"aMS",%progbits,1
 577              		.align	2
 578              	.LC2:
 579 0000 35207365 		.ascii	"5 second delay\000"
 579      636F6E64 
 579      2064656C 
 579      617900
 580              		.section	.text.main,"ax",%progbits
 581              		.align	1
 582              		.global	main
 583              		.syntax unified
 584              		.code	16
 585              		.thumb_func
 587              	main:
 588              	.LFB40:
  75:Core/Src/main.c ****   /* USER CODE BEGIN 1 */
 589              		.loc 1 75 1 view -0
 590              		.cfi_startproc
 591              		@ Volatile: function does not return.
 592              		@ args = 0, pretend = 0, frame = 0
 593              		@ frame_needed = 0, uses_anonymous_args = 0
 594 0000 70B5     		push	{r4, r5, r6, lr}
 595              	.LCFI7:
 596              		.cfi_def_cfa_offset 16
 597              		.cfi_offset 4, -16
 598              		.cfi_offset 5, -12
 599              		.cfi_offset 6, -8
 600              		.cfi_offset 14, -4
  83:Core/Src/main.c **** 
 601              		.loc 1 83 3 view .LVU150
 602 0002 FFF7FEFF 		bl	HAL_Init
 603              	.LVL47:
  90:Core/Src/main.c **** 
 604              		.loc 1 90 3 view .LVU151
 605 0006 FFF7FEFF 		bl	SystemClock_Config
 606              	.LVL48:
  97:Core/Src/main.c ****   /* USER CODE BEGIN 2 */
 607              		.loc 1 97 3 view .LVU152
 608 000a FFF7FEFF 		bl	MX_GPIO_Init
 609              	.LVL49:
 100:Core/Src/main.c **** 
 610              		.loc 1 100 3 view .LVU153
 100:Core/Src/main.c **** 
 611              		.loc 1 100 9 is_stmt 0 view .LVU154
 612 000e 124C     		ldr	r4, .L27
 613 0010 6369     		ldr	r3, [r4, #20]
 100:Core/Src/main.c **** 
 614              		.loc 1 100 16 view .LVU155
 615 0012 0122     		movs	r2, #1
 616 0014 1343     		orrs	r3, r2
 617 0016 6361     		str	r3, [r4, #20]
ARM GAS  C:\Users\jonat\AppData\Local\Temp\ccmYXKG7.s 			page 20


 103:Core/Src/main.c ****   
 618              		.loc 1 103 3 is_stmt 1 view .LVU156
 103:Core/Src/main.c ****   
 619              		.loc 1 103 16 is_stmt 0 view .LVU157
 620 0018 FFF7FEFF 		bl	HAL_GetTick
 621              	.LVL50:
 103:Core/Src/main.c ****   
 622              		.loc 1 103 14 discriminator 1 view .LVU158
 623 001c 0F4E     		ldr	r6, .L27+4
 624 001e 3060     		str	r0, [r6]
 106:Core/Src/main.c ****   printf("5 second delay");
 625              		.loc 1 106 3 is_stmt 1 view .LVU159
 626 0020 0F4D     		ldr	r5, .L27+8
 627 0022 2800     		movs	r0, r5
 628 0024 FFF7FEFF 		bl	HAL_Delay
 629              	.LVL51:
 107:Core/Src/main.c **** 
 630              		.loc 1 107 3 view .LVU160
 631 0028 0E48     		ldr	r0, .L27+12
 632 002a FFF7FEFF 		bl	printf
 633              	.LVL52:
 110:Core/Src/main.c ****   
 634              		.loc 1 110 3 view .LVU161
 110:Core/Src/main.c ****   
 635              		.loc 1 110 14 is_stmt 0 view .LVU162
 636 002e FFF7FEFF 		bl	HAL_GetTick
 637              	.LVL53:
 110:Core/Src/main.c ****   
 638              		.loc 1 110 12 discriminator 1 view .LVU163
 639 0032 0D4B     		ldr	r3, .L27+16
 640 0034 1860     		str	r0, [r3]
 114:Core/Src/main.c ****   
 641              		.loc 1 114 3 is_stmt 1 view .LVU164
 114:Core/Src/main.c ****   
 642              		.loc 1 114 29 is_stmt 0 view .LVU165
 643 0036 3368     		ldr	r3, [r6]
 644 0038 C01A     		subs	r0, r0, r3
 114:Core/Src/main.c ****   
 645              		.loc 1 114 18 view .LVU166
 646 003a 0C4B     		ldr	r3, .L27+20
 647 003c 1860     		str	r0, [r3]
 118:Core/Src/main.c **** 
 648              		.loc 1 118 3 is_stmt 1 view .LVU167
 118:Core/Src/main.c **** 
 649              		.loc 1 118 9 is_stmt 0 view .LVU168
 650 003e 6369     		ldr	r3, [r4, #20]
 118:Core/Src/main.c **** 
 651              		.loc 1 118 16 view .LVU169
 652 0040 0222     		movs	r2, #2
 653 0042 1343     		orrs	r3, r2
 654 0044 6361     		str	r3, [r4, #20]
 121:Core/Src/main.c **** 
 655              		.loc 1 121 3 is_stmt 1 view .LVU170
 656 0046 2800     		movs	r0, r5
 657 0048 FFF7FEFF 		bl	HAL_Delay
 658              	.LVL54:
 125:Core/Src/main.c ****   
ARM GAS  C:\Users\jonat\AppData\Local\Temp\ccmYXKG7.s 			page 21


 659              		.loc 1 125 3 view .LVU171
 125:Core/Src/main.c ****   
 660              		.loc 1 125 8 is_stmt 0 view .LVU172
 661 004c 6369     		ldr	r3, [r4, #20]
 125:Core/Src/main.c ****   
 662              		.loc 1 125 14 view .LVU173
 663 004e 0322     		movs	r2, #3
 664 0050 9343     		bics	r3, r2
 665 0052 6361     		str	r3, [r4, #20]
 666              	.L26:
 132:Core/Src/main.c ****   {
 667              		.loc 1 132 3 is_stmt 1 view .LVU174
 137:Core/Src/main.c ****   /* USER CODE END 3 */
 668              		.loc 1 137 3 view .LVU175
 132:Core/Src/main.c ****   {
 669              		.loc 1 132 9 view .LVU176
 670 0054 FEE7     		b	.L26
 671              	.L28:
 672 0056 C046     		.align	2
 673              	.L27:
 674 0058 00040048 		.word	1207960576
 675 005c 00000000 		.word	start_time
 676 0060 88130000 		.word	5000
 677 0064 00000000 		.word	.LC2
 678 0068 00000000 		.word	end_time
 679 006c 00000000 		.word	execution_time
 680              		.cfi_endproc
 681              	.LFE40:
 683              		.global	imageSize
 684              		.section	.data.imageSize,"aw"
 685              		.align	2
 688              	imageSize:
 689 0000 80000000 		.word	128
 690 0004 A0000000 		.word	160
 691 0008 C0000000 		.word	192
 692 000c E0000000 		.word	224
 693 0010 00010000 		.word	256
 694              		.global	checksum
 695              		.section	.bss.checksum,"aw",%nobits
 696              		.align	3
 699              	checksum:
 700 0000 00000000 		.space	8
 700      00000000 
 701              		.global	execution_time
 702              		.section	.bss.execution_time,"aw",%nobits
 703              		.align	2
 706              	execution_time:
 707 0000 00000000 		.space	4
 708              		.global	end_time
 709              		.section	.bss.end_time,"aw",%nobits
 710              		.align	2
 713              	end_time:
 714 0000 00000000 		.space	4
 715              		.global	start_time
 716              		.section	.bss.start_time,"aw",%nobits
 717              		.align	2
 720              	start_time:
ARM GAS  C:\Users\jonat\AppData\Local\Temp\ccmYXKG7.s 			page 22


 721 0000 00000000 		.space	4
 722              		.text
 723              	.Letext0:
 724              		.file 3 "C:\\ST\\STM32CubeIDE_1.19.0\\STM32CubeIDE\\plugins\\com.st.stm32cube.ide.mcu.externaltool
 725              		.file 4 "C:\\ST\\STM32CubeIDE_1.19.0\\STM32CubeIDE\\plugins\\com.st.stm32cube.ide.mcu.externaltool
 726              		.file 5 "Drivers/CMSIS/Device/ST/STM32F0xx/Include/stm32f051x8.h"
 727              		.file 6 "Drivers/STM32F0xx_HAL_Driver/Inc/stm32f0xx_hal_def.h"
 728              		.file 7 "Drivers/STM32F0xx_HAL_Driver/Inc/stm32f0xx_hal_rcc.h"
 729              		.file 8 "Drivers/STM32F0xx_HAL_Driver/Inc/stm32f0xx_hal_gpio.h"
 730              		.file 9 "Drivers/STM32F0xx_HAL_Driver/Inc/stm32f0xx_hal.h"
 731              		.file 10 "<built-in>"
ARM GAS  C:\Users\jonat\AppData\Local\Temp\ccmYXKG7.s 			page 23


DEFINED SYMBOLS
                            *ABS*:00000000 main.c
C:\Users\jonat\AppData\Local\Temp\ccmYXKG7.s:19     .text.MX_GPIO_Init:00000000 $t
C:\Users\jonat\AppData\Local\Temp\ccmYXKG7.s:24     .text.MX_GPIO_Init:00000000 MX_GPIO_Init
C:\Users\jonat\AppData\Local\Temp\ccmYXKG7.s:114    .text.MX_GPIO_Init:0000005c $d
C:\Users\jonat\AppData\Local\Temp\ccmYXKG7.s:121    .text.calculate_mandelbrot_fixed_point_arithmetic:00000000 $t
C:\Users\jonat\AppData\Local\Temp\ccmYXKG7.s:127    .text.calculate_mandelbrot_fixed_point_arithmetic:00000000 calculate_mandelbrot_fixed_point_arithmetic
C:\Users\jonat\AppData\Local\Temp\ccmYXKG7.s:408    .text.calculate_mandelbrot_fixed_point_arithmetic:00000114 $d
C:\Users\jonat\AppData\Local\Temp\ccmYXKG7.s:699    .bss.checksum:00000000 checksum
C:\Users\jonat\AppData\Local\Temp\ccmYXKG7.s:417    .text.calculate_mandelbrot_double:00000000 $t
C:\Users\jonat\AppData\Local\Temp\ccmYXKG7.s:423    .text.calculate_mandelbrot_double:00000000 calculate_mandelbrot_double
C:\Users\jonat\AppData\Local\Temp\ccmYXKG7.s:446    .text.Error_Handler:00000000 $t
C:\Users\jonat\AppData\Local\Temp\ccmYXKG7.s:452    .text.Error_Handler:00000000 Error_Handler
C:\Users\jonat\AppData\Local\Temp\ccmYXKG7.s:484    .text.SystemClock_Config:00000000 $t
C:\Users\jonat\AppData\Local\Temp\ccmYXKG7.s:490    .text.SystemClock_Config:00000000 SystemClock_Config
C:\Users\jonat\AppData\Local\Temp\ccmYXKG7.s:577    .rodata.main.str1.4:00000000 $d
C:\Users\jonat\AppData\Local\Temp\ccmYXKG7.s:581    .text.main:00000000 $t
C:\Users\jonat\AppData\Local\Temp\ccmYXKG7.s:587    .text.main:00000000 main
C:\Users\jonat\AppData\Local\Temp\ccmYXKG7.s:674    .text.main:00000058 $d
C:\Users\jonat\AppData\Local\Temp\ccmYXKG7.s:720    .bss.start_time:00000000 start_time
C:\Users\jonat\AppData\Local\Temp\ccmYXKG7.s:713    .bss.end_time:00000000 end_time
C:\Users\jonat\AppData\Local\Temp\ccmYXKG7.s:706    .bss.execution_time:00000000 execution_time
C:\Users\jonat\AppData\Local\Temp\ccmYXKG7.s:688    .data.imageSize:00000000 imageSize
C:\Users\jonat\AppData\Local\Temp\ccmYXKG7.s:685    .data.imageSize:00000000 $d
C:\Users\jonat\AppData\Local\Temp\ccmYXKG7.s:696    .bss.checksum:00000000 $d
C:\Users\jonat\AppData\Local\Temp\ccmYXKG7.s:703    .bss.execution_time:00000000 $d
C:\Users\jonat\AppData\Local\Temp\ccmYXKG7.s:710    .bss.end_time:00000000 $d
C:\Users\jonat\AppData\Local\Temp\ccmYXKG7.s:717    .bss.start_time:00000000 $d

UNDEFINED SYMBOLS
memset
HAL_GPIO_WritePin
HAL_GPIO_Init
__aeabi_idiv
HAL_RCC_OscConfig
HAL_RCC_ClockConfig
HAL_Init
HAL_GetTick
HAL_Delay
printf
