ARM GAS  C:\Users\jonat\AppData\Local\Temp\ccTafFON.s 			page 1


   1              		.cpu cortex-m0
   2              		.arch armv6s-m
   3              		.fpu softvfp
   4              		.eabi_attribute 20, 1
   5              		.eabi_attribute 21, 1
   6              		.eabi_attribute 23, 3
   7              		.eabi_attribute 24, 1
   8              		.eabi_attribute 25, 1
   9              		.eabi_attribute 26, 1
  10              		.eabi_attribute 30, 1
  11              		.eabi_attribute 34, 0
  12              		.eabi_attribute 18, 4
  13              		.file	"main.c"
  14              		.text
  15              	.Ltext0:
  16              		.cfi_sections	.debug_frame
  17              		.file 1 "Core/Src/main.c"
  18              		.section	.text.MX_GPIO_Init,"ax",%progbits
  19              		.align	1
  20              		.syntax unified
  21              		.code	16
  22              		.thumb_func
  24              	MX_GPIO_Init:
  25              	.LFB42:
   1:Core/Src/main.c **** /* USER CODE BEGIN Header */
   2:Core/Src/main.c **** /**
   3:Core/Src/main.c ****   ******************************************************************************
   4:Core/Src/main.c ****   * @file           : main.c
   5:Core/Src/main.c ****   * @brief          : Main program body
   6:Core/Src/main.c ****   ******************************************************************************
   7:Core/Src/main.c ****   * @attention
   8:Core/Src/main.c ****   *
   9:Core/Src/main.c ****   * Copyright (c) 2025 STMicroelectronics.
  10:Core/Src/main.c ****   * All rights reserved.
  11:Core/Src/main.c ****   *
  12:Core/Src/main.c ****   * This software is licensed under terms that can be found in the LICENSE file
  13:Core/Src/main.c ****   * in the root directory of this software component.
  14:Core/Src/main.c ****   * If no LICENSE file comes with this software, it is provided AS-IS.
  15:Core/Src/main.c ****   *
  16:Core/Src/main.c ****   ******************************************************************************
  17:Core/Src/main.c ****   */
  18:Core/Src/main.c **** /* USER CODE END Header */
  19:Core/Src/main.c **** /* Includes ------------------------------------------------------------------*/
  20:Core/Src/main.c **** #include "main.h"
  21:Core/Src/main.c **** 
  22:Core/Src/main.c **** /* Private includes ----------------------------------------------------------*/
  23:Core/Src/main.c **** /* USER CODE BEGIN Includes */
  24:Core/Src/main.c **** #include <stdint.h>
  25:Core/Src/main.c **** #include "stm32f0xx.h"
  26:Core/Src/main.c **** /* USER CODE END Includes */
  27:Core/Src/main.c **** 
  28:Core/Src/main.c **** /* Private typedef -----------------------------------------------------------*/
  29:Core/Src/main.c **** /* USER CODE BEGIN PTD */
  30:Core/Src/main.c **** #define MAX_ITER 100
  31:Core/Src/main.c **** /* USER CODE END PTD */
  32:Core/Src/main.c **** 
  33:Core/Src/main.c **** /* Private define ------------------------------------------------------------*/
ARM GAS  C:\Users\jonat\AppData\Local\Temp\ccTafFON.s 			page 2


  34:Core/Src/main.c **** /* USER CODE BEGIN PD */
  35:Core/Src/main.c **** 
  36:Core/Src/main.c **** /* USER CODE END PD */
  37:Core/Src/main.c **** 
  38:Core/Src/main.c **** /* Private macro -------------------------------------------------------------*/
  39:Core/Src/main.c **** /* USER CODE BEGIN PM */
  40:Core/Src/main.c **** 
  41:Core/Src/main.c **** /* USER CODE END PM */
  42:Core/Src/main.c **** 
  43:Core/Src/main.c **** /* Private variables ---------------------------------------------------------*/
  44:Core/Src/main.c **** 
  45:Core/Src/main.c **** /* USER CODE BEGIN PV */
  46:Core/Src/main.c **** //TODO: Define and initialise the global varibales required
  47:Core/Src/main.c **** 	int start_time = 0;
  48:Core/Src/main.c **** 	int end_time = 0;
  49:Core/Src/main.c **** 	int execution_time = 0;
  50:Core/Src/main.c **** 	uint64_t checksum = 0;
  51:Core/Src/main.c **** 	int imageSize[5] = {128,160,192,224,256};
  52:Core/Src/main.c **** /* USER CODE END PV */
  53:Core/Src/main.c **** 
  54:Core/Src/main.c **** /* Private function prototypes -----------------------------------------------*/
  55:Core/Src/main.c **** void SystemClock_Config(void);
  56:Core/Src/main.c **** static void MX_GPIO_Init(void);
  57:Core/Src/main.c **** /* USER CODE BEGIN PFP */
  58:Core/Src/main.c **** uint64_t calculate_mandelbrot_fixed_point_arithmetic(int width, int height, int max_iterations);
  59:Core/Src/main.c **** uint64_t calculate_mandelbrot_double(int width, int height, int max_iterations);
  60:Core/Src/main.c **** 
  61:Core/Src/main.c **** 
  62:Core/Src/main.c **** /* USER CODE END PFP */
  63:Core/Src/main.c **** 
  64:Core/Src/main.c **** /* Private user code ---------------------------------------------------------*/
  65:Core/Src/main.c **** /* USER CODE BEGIN 0 */
  66:Core/Src/main.c **** 
  67:Core/Src/main.c **** /* USER CODE END 0 */
  68:Core/Src/main.c **** 
  69:Core/Src/main.c **** /**
  70:Core/Src/main.c ****   * @brief  The application entry point.
  71:Core/Src/main.c ****   * @retval int
  72:Core/Src/main.c ****   */
  73:Core/Src/main.c **** int main(void)
  74:Core/Src/main.c **** {
  75:Core/Src/main.c ****   /* USER CODE BEGIN 1 */
  76:Core/Src/main.c **** 
  77:Core/Src/main.c ****   /* USER CODE END 1 */
  78:Core/Src/main.c **** 
  79:Core/Src/main.c ****   /* MCU Configuration--------------------------------------------------------*/
  80:Core/Src/main.c **** 
  81:Core/Src/main.c ****   /* Reset of all peripherals, Initializes the Flash interface and the Systick. */
  82:Core/Src/main.c ****   HAL_Init();
  83:Core/Src/main.c **** 
  84:Core/Src/main.c ****   /* USER CODE BEGIN Init */
  85:Core/Src/main.c **** 
  86:Core/Src/main.c ****   /* USER CODE END Init */
  87:Core/Src/main.c **** 
  88:Core/Src/main.c ****   /* Configure the system clock */
  89:Core/Src/main.c ****   SystemClock_Config();
  90:Core/Src/main.c **** 
ARM GAS  C:\Users\jonat\AppData\Local\Temp\ccTafFON.s 			page 3


  91:Core/Src/main.c ****   /* USER CODE BEGIN SysInit */
  92:Core/Src/main.c **** 
  93:Core/Src/main.c ****   /* USER CODE END SysInit */
  94:Core/Src/main.c **** 
  95:Core/Src/main.c ****   /* Initialize all configured peripherals */
  96:Core/Src/main.c ****   MX_GPIO_Init();
  97:Core/Src/main.c ****   /* USER CODE BEGIN 2 */
  98:Core/Src/main.c ****   //TODO: Turn on LED 0 to signify the start of the operation
  99:Core/Src/main.c ****   GPIOB -> ODR |= GPIO_ODR_0;
 100:Core/Src/main.c **** 
 101:Core/Src/main.c ****   int height, width;
 102:Core/Src/main.c ****    width = height = imageSize[0];
 103:Core/Src/main.c ****    //width = height = imageSize[1];
 104:Core/Src/main.c ****    //width = height = imageSize[2];
 105:Core/Src/main.c ****    //width = height = imageSize[3];
 106:Core/Src/main.c **** //   width = height = imageSize[4];
 107:Core/Src/main.c **** 
 108:Core/Src/main.c ****   //TODO: Record the start time
 109:Core/Src/main.c ****   start_time = HAL_GetTick();
 110:Core/Src/main.c ****   
 111:Core/Src/main.c ****   
 112:Core/Src/main.c ****   //TODO: Call the Mandelbrot Function and store the output in the checksum variable defined initia
 113:Core/Src/main.c ****   checksum = calculate_mandelbrot_fixed_point_arithmetic(width, height, MAX_ITER);
 114:Core/Src/main.c **** 
 115:Core/Src/main.c ****   //TODO: Record the end time
 116:Core/Src/main.c ****   end_time = HAL_GetTick();
 117:Core/Src/main.c **** 
 118:Core/Src/main.c ****   //TODO: Calculate the execution time
 119:Core/Src/main.c ****    execution_time = end_time - start_time;
 120:Core/Src/main.c **** 
 121:Core/Src/main.c ****   //TODO: Turn on LED 1 to signify the end of the operation
 122:Core/Src/main.c ****    GPIOB -> ODR |= GPIO_ODR_1;
 123:Core/Src/main.c **** 
 124:Core/Src/main.c ****   //TODO: Hold the LEDs on for a 1s delay
 125:Core/Src/main.c ****    HAL_Delay(1000);
 126:Core/Src/main.c **** 
 127:Core/Src/main.c ****   //TODO: Turn off the LEDs
 128:Core/Src/main.c ****    GPIOB->ODR &=~ (GPIO_ODR_0|GPIO_ODR_1);
 129:Core/Src/main.c **** 
 130:Core/Src/main.c ****   /* USER CODE END 2 */
 131:Core/Src/main.c **** 
 132:Core/Src/main.c ****   /* Infinite loop */
 133:Core/Src/main.c ****   /* USER CODE BEGIN WHILE */
 134:Core/Src/main.c ****   while (1)
 135:Core/Src/main.c ****   {
 136:Core/Src/main.c ****     /* USER CODE END WHILE */
 137:Core/Src/main.c **** 
 138:Core/Src/main.c ****     /* USER CODE BEGIN 3 */
 139:Core/Src/main.c ****   }
 140:Core/Src/main.c ****   /* USER CODE END 3 */
 141:Core/Src/main.c **** }
 142:Core/Src/main.c **** 
 143:Core/Src/main.c **** /**
 144:Core/Src/main.c ****   * @brief System Clock Configuration
 145:Core/Src/main.c ****   * @retval None
 146:Core/Src/main.c ****   */
 147:Core/Src/main.c **** void SystemClock_Config(void)
ARM GAS  C:\Users\jonat\AppData\Local\Temp\ccTafFON.s 			page 4


 148:Core/Src/main.c **** {
 149:Core/Src/main.c ****   RCC_OscInitTypeDef RCC_OscInitStruct = {0};
 150:Core/Src/main.c ****   RCC_ClkInitTypeDef RCC_ClkInitStruct = {0};
 151:Core/Src/main.c **** 
 152:Core/Src/main.c ****   /** Initializes the RCC Oscillators according to the specified parameters
 153:Core/Src/main.c ****   * in the RCC_OscInitTypeDef structure.
 154:Core/Src/main.c ****   */
 155:Core/Src/main.c ****   RCC_OscInitStruct.OscillatorType = RCC_OSCILLATORTYPE_HSI;
 156:Core/Src/main.c ****   RCC_OscInitStruct.HSIState = RCC_HSI_ON;
 157:Core/Src/main.c ****   RCC_OscInitStruct.HSICalibrationValue = RCC_HSICALIBRATION_DEFAULT;
 158:Core/Src/main.c ****   RCC_OscInitStruct.PLL.PLLState = RCC_PLL_NONE;
 159:Core/Src/main.c ****   if (HAL_RCC_OscConfig(&RCC_OscInitStruct) != HAL_OK)
 160:Core/Src/main.c ****   {
 161:Core/Src/main.c ****     Error_Handler();
 162:Core/Src/main.c ****   }
 163:Core/Src/main.c **** 
 164:Core/Src/main.c ****   /** Initializes the CPU, AHB and APB buses clocks
 165:Core/Src/main.c ****   */
 166:Core/Src/main.c ****   RCC_ClkInitStruct.ClockType = RCC_CLOCKTYPE_HCLK|RCC_CLOCKTYPE_SYSCLK
 167:Core/Src/main.c ****                               |RCC_CLOCKTYPE_PCLK1;
 168:Core/Src/main.c ****   RCC_ClkInitStruct.SYSCLKSource = RCC_SYSCLKSOURCE_HSI;
 169:Core/Src/main.c ****   RCC_ClkInitStruct.AHBCLKDivider = RCC_SYSCLK_DIV1;
 170:Core/Src/main.c ****   RCC_ClkInitStruct.APB1CLKDivider = RCC_HCLK_DIV1;
 171:Core/Src/main.c **** 
 172:Core/Src/main.c ****   if (HAL_RCC_ClockConfig(&RCC_ClkInitStruct, FLASH_LATENCY_0) != HAL_OK)
 173:Core/Src/main.c ****   {
 174:Core/Src/main.c ****     Error_Handler();
 175:Core/Src/main.c ****   }
 176:Core/Src/main.c **** }
 177:Core/Src/main.c **** 
 178:Core/Src/main.c **** /**
 179:Core/Src/main.c ****   * @brief GPIO Initialization Function
 180:Core/Src/main.c ****   * @param None
 181:Core/Src/main.c ****   * @retval None
 182:Core/Src/main.c ****   */
 183:Core/Src/main.c **** static void MX_GPIO_Init(void)
 184:Core/Src/main.c **** {
  26              		.loc 1 184 1 view -0
  27              		.cfi_startproc
  28              		@ args = 0, pretend = 0, frame = 32
  29              		@ frame_needed = 0, uses_anonymous_args = 0
  30 0000 10B5     		push	{r4, lr}
  31              	.LCFI0:
  32              		.cfi_def_cfa_offset 8
  33              		.cfi_offset 4, -8
  34              		.cfi_offset 14, -4
  35 0002 88B0     		sub	sp, sp, #32
  36              	.LCFI1:
  37              		.cfi_def_cfa_offset 40
 185:Core/Src/main.c ****   GPIO_InitTypeDef GPIO_InitStruct = {0};
  38              		.loc 1 185 3 view .LVU1
  39              		.loc 1 185 20 is_stmt 0 view .LVU2
  40 0004 1422     		movs	r2, #20
  41 0006 0021     		movs	r1, #0
  42 0008 03A8     		add	r0, sp, #12
  43 000a FFF7FEFF 		bl	memset
  44              	.LVL0:
ARM GAS  C:\Users\jonat\AppData\Local\Temp\ccTafFON.s 			page 5


 186:Core/Src/main.c **** /* USER CODE BEGIN MX_GPIO_Init_1 */
 187:Core/Src/main.c **** /* USER CODE END MX_GPIO_Init_1 */
 188:Core/Src/main.c **** 
 189:Core/Src/main.c ****   /* GPIO Ports Clock Enable */
 190:Core/Src/main.c ****   __HAL_RCC_GPIOB_CLK_ENABLE();
  45              		.loc 1 190 3 is_stmt 1 view .LVU3
  46              	.LBB4:
  47              		.loc 1 190 3 view .LVU4
  48              		.loc 1 190 3 view .LVU5
  49 000e 134B     		ldr	r3, .L2
  50 0010 5A69     		ldr	r2, [r3, #20]
  51 0012 8021     		movs	r1, #128
  52 0014 C902     		lsls	r1, r1, #11
  53 0016 0A43     		orrs	r2, r1
  54 0018 5A61     		str	r2, [r3, #20]
  55              		.loc 1 190 3 view .LVU6
  56 001a 5A69     		ldr	r2, [r3, #20]
  57 001c 0A40     		ands	r2, r1
  58 001e 0192     		str	r2, [sp, #4]
  59              		.loc 1 190 3 view .LVU7
  60 0020 019A     		ldr	r2, [sp, #4]
  61              	.LBE4:
  62              		.loc 1 190 3 view .LVU8
 191:Core/Src/main.c ****   __HAL_RCC_GPIOA_CLK_ENABLE();
  63              		.loc 1 191 3 view .LVU9
  64              	.LBB5:
  65              		.loc 1 191 3 view .LVU10
  66              		.loc 1 191 3 view .LVU11
  67 0022 5A69     		ldr	r2, [r3, #20]
  68 0024 8021     		movs	r1, #128
  69 0026 8902     		lsls	r1, r1, #10
  70 0028 0A43     		orrs	r2, r1
  71 002a 5A61     		str	r2, [r3, #20]
  72              		.loc 1 191 3 view .LVU12
  73 002c 5B69     		ldr	r3, [r3, #20]
  74 002e 0B40     		ands	r3, r1
  75 0030 0293     		str	r3, [sp, #8]
  76              		.loc 1 191 3 view .LVU13
  77 0032 029B     		ldr	r3, [sp, #8]
  78              	.LBE5:
  79              		.loc 1 191 3 view .LVU14
 192:Core/Src/main.c **** 
 193:Core/Src/main.c ****   /*Configure GPIO pin Output Level */
 194:Core/Src/main.c ****   HAL_GPIO_WritePin(GPIOB, GPIO_PIN_0|GPIO_PIN_1, GPIO_PIN_RESET);
  80              		.loc 1 194 3 view .LVU15
  81 0034 0A4C     		ldr	r4, .L2+4
  82 0036 0022     		movs	r2, #0
  83 0038 0321     		movs	r1, #3
  84 003a 2000     		movs	r0, r4
  85 003c FFF7FEFF 		bl	HAL_GPIO_WritePin
  86              	.LVL1:
 195:Core/Src/main.c **** 
 196:Core/Src/main.c ****   /*Configure GPIO pins : PB0 PB1 */
 197:Core/Src/main.c ****   GPIO_InitStruct.Pin = GPIO_PIN_0|GPIO_PIN_1;
  87              		.loc 1 197 3 view .LVU16
  88              		.loc 1 197 23 is_stmt 0 view .LVU17
  89 0040 0323     		movs	r3, #3
ARM GAS  C:\Users\jonat\AppData\Local\Temp\ccTafFON.s 			page 6


  90 0042 0393     		str	r3, [sp, #12]
 198:Core/Src/main.c ****   GPIO_InitStruct.Mode = GPIO_MODE_OUTPUT_PP;
  91              		.loc 1 198 3 is_stmt 1 view .LVU18
  92              		.loc 1 198 24 is_stmt 0 view .LVU19
  93 0044 023B     		subs	r3, r3, #2
  94 0046 0493     		str	r3, [sp, #16]
 199:Core/Src/main.c ****   GPIO_InitStruct.Pull = GPIO_NOPULL;
  95              		.loc 1 199 3 is_stmt 1 view .LVU20
  96              		.loc 1 199 24 is_stmt 0 view .LVU21
  97 0048 0023     		movs	r3, #0
  98 004a 0593     		str	r3, [sp, #20]
 200:Core/Src/main.c ****   GPIO_InitStruct.Speed = GPIO_SPEED_FREQ_LOW;
  99              		.loc 1 200 3 is_stmt 1 view .LVU22
 100              		.loc 1 200 25 is_stmt 0 view .LVU23
 101 004c 0693     		str	r3, [sp, #24]
 201:Core/Src/main.c ****   HAL_GPIO_Init(GPIOB, &GPIO_InitStruct);
 102              		.loc 1 201 3 is_stmt 1 view .LVU24
 103 004e 03A9     		add	r1, sp, #12
 104 0050 2000     		movs	r0, r4
 105 0052 FFF7FEFF 		bl	HAL_GPIO_Init
 106              	.LVL2:
 202:Core/Src/main.c **** 
 203:Core/Src/main.c **** /* USER CODE BEGIN MX_GPIO_Init_2 */
 204:Core/Src/main.c **** /* USER CODE END MX_GPIO_Init_2 */
 205:Core/Src/main.c **** }
 107              		.loc 1 205 1 is_stmt 0 view .LVU25
 108 0056 08B0     		add	sp, sp, #32
 109              		@ sp needed
 110 0058 10BD     		pop	{r4, pc}
 111              	.L3:
 112 005a C046     		.align	2
 113              	.L2:
 114 005c 00100240 		.word	1073876992
 115 0060 00040048 		.word	1207960576
 116              		.cfi_endproc
 117              	.LFE42:
 119              		.global	__aeabi_idiv
 120              		.section	.text.calculate_mandelbrot_fixed_point_arithmetic,"ax",%progbits
 121              		.align	1
 122              		.global	calculate_mandelbrot_fixed_point_arithmetic
 123              		.syntax unified
 124              		.code	16
 125              		.thumb_func
 127              	calculate_mandelbrot_fixed_point_arithmetic:
 128              	.LVL3:
 129              	.LFB43:
 206:Core/Src/main.c **** 
 207:Core/Src/main.c **** /* USER CODE BEGIN 4 */
 208:Core/Src/main.c **** //TODO: Mandelbroat using variable type integers and fixed point arithmetic
 209:Core/Src/main.c **** uint64_t calculate_mandelbrot_fixed_point_arithmetic(int width, int height, int max_iterations){
 130              		.loc 1 209 96 is_stmt 1 view -0
 131              		.cfi_startproc
 132              		@ args = 0, pretend = 0, frame = 32
 133              		@ frame_needed = 0, uses_anonymous_args = 0
 134              		.loc 1 209 96 is_stmt 0 view .LVU27
 135 0000 F0B5     		push	{r4, r5, r6, r7, lr}
 136              	.LCFI2:
ARM GAS  C:\Users\jonat\AppData\Local\Temp\ccTafFON.s 			page 7


 137              		.cfi_def_cfa_offset 20
 138              		.cfi_offset 4, -20
 139              		.cfi_offset 5, -16
 140              		.cfi_offset 6, -12
 141              		.cfi_offset 7, -8
 142              		.cfi_offset 14, -4
 143 0002 DE46     		mov	lr, fp
 144 0004 5746     		mov	r7, r10
 145 0006 4E46     		mov	r6, r9
 146 0008 4546     		mov	r5, r8
 147 000a E0B5     		push	{r5, r6, r7, lr}
 148              	.LCFI3:
 149              		.cfi_def_cfa_offset 36
 150              		.cfi_offset 8, -36
 151              		.cfi_offset 9, -32
 152              		.cfi_offset 10, -28
 153              		.cfi_offset 11, -24
 154 000c 89B0     		sub	sp, sp, #36
 155              	.LCFI4:
 156              		.cfi_def_cfa_offset 72
 157 000e 0092     		str	r2, [sp]
 210:Core/Src/main.c ****   uint64_t mandelbrot_sum = 0;
 158              		.loc 1 210 3 is_stmt 1 view .LVU28
 159              	.LVL4:
 211:Core/Src/main.c ****     //TODO: Complete the function implementation
 212:Core/Src/main.c ****         	  int x0, y0, xi, yi, iteration, x, y, temp;
 160              		.loc 1 212 12 view .LVU29
 213:Core/Src/main.c ****         	  // Defining scaling factor
 214:Core/Src/main.c ****         	  const int S = 1000000;
 161              		.loc 1 214 12 view .LVU30
 215:Core/Src/main.c ****         	  //Scaling height and width
 216:Core/Src/main.c ****         	  height = height*S;
 162              		.loc 1 216 12 view .LVU31
 163              		.loc 1 216 19 is_stmt 0 view .LVU32
 164 0010 4A01     		lsls	r2, r1, #5
 165              	.LVL5:
 166              		.loc 1 216 19 view .LVU33
 167 0012 521A     		subs	r2, r2, r1
 168 0014 9301     		lsls	r3, r2, #6
 169 0016 9B1A     		subs	r3, r3, r2
 170 0018 DB00     		lsls	r3, r3, #3
 171 001a 5B18     		adds	r3, r3, r1
 172 001c 9901     		lsls	r1, r3, #6
 173              	.LVL6:
 217:Core/Src/main.c ****         	  width = width*S;
 174              		.loc 1 217 12 is_stmt 1 view .LVU34
 175              		.loc 1 217 18 is_stmt 0 view .LVU35
 176 001e 4201     		lsls	r2, r0, #5
 177 0020 121A     		subs	r2, r2, r0
 178 0022 9301     		lsls	r3, r2, #6
 179 0024 9B1A     		subs	r3, r3, r2
 180 0026 DB00     		lsls	r3, r3, #3
 181 0028 1B18     		adds	r3, r3, r0
 182 002a 9B01     		lsls	r3, r3, #6
 183 002c 0693     		str	r3, [sp, #24]
 184              	.LVL7:
 218:Core/Src/main.c **** 
ARM GAS  C:\Users\jonat\AppData\Local\Temp\ccTafFON.s 			page 8


 219:Core/Src/main.c ****         	  for(y = 0; y < height - 1*S; y = y + 1*S){
 185              		.loc 1 219 12 is_stmt 1 view .LVU36
 186              		.loc 1 219 18 is_stmt 0 view .LVU37
 187 002e 0023     		movs	r3, #0
 188              	.LVL8:
 189              		.loc 1 219 18 view .LVU38
 190 0030 9846     		mov	r8, r3
 210:Core/Src/main.c ****     //TODO: Complete the function implementation
 191              		.loc 1 210 12 view .LVU39
 192 0032 0023     		movs	r3, #0
 193 0034 0024     		movs	r4, #0
 194 0036 0493     		str	r3, [sp, #16]
 195 0038 0594     		str	r4, [sp, #20]
 196 003a 4346     		mov	r3, r8
 197 003c 0793     		str	r3, [sp, #28]
 198 003e 8846     		mov	r8, r1
 199              		.loc 1 219 12 view .LVU40
 200 0040 63E0     		b	.L5
 201              	.LVL9:
 202              	.L8:
 220:Core/Src/main.c ****         		  for(x = 0; x < width - 1*S; x = x + 1*S){
 221:Core/Src/main.c ****         			x0 = (((x/width)*S)*3500000)/S - 2500000;
 222:Core/Src/main.c ****         			y0 = (((y/height)*S)*2000000)/S - 1000000;
 223:Core/Src/main.c ****         			xi = 0;
 224:Core/Src/main.c ****         			yi = 0;
 225:Core/Src/main.c ****         			iteration = 0;
 226:Core/Src/main.c ****         			while((iteration < max_iterations)&&((xi^2)/S + (yi^2)/S <= 4*S)){
 227:Core/Src/main.c ****         				temp = (xi^2)/S - (yi^2)/S;
 203              		.loc 1 227 13 is_stmt 1 view .LVU41
 228:Core/Src/main.c ****         				yi = 2*xi*yi/S +y0;
 204              		.loc 1 228 13 view .LVU42
 205              		.loc 1 228 22 is_stmt 0 view .LVU43
 206 0042 2800     		movs	r0, r5
 207              	.LVL10:
 208              		.loc 1 228 22 view .LVU44
 209 0044 7843     		muls	r0, r7
 210              		.loc 1 228 25 view .LVU45
 211 0046 3A49     		ldr	r1, .L14
 212 0048 FFF7FEFF 		bl	__aeabi_idiv
 213              	.LVL11:
 214              		.loc 1 228 16 view .LVU46
 215 004c 4844     		add	r0, r0, r9
 216 004e 0500     		movs	r5, r0
 217              	.LVL12:
 229:Core/Src/main.c ****         				xi = temp + x0;
 218              		.loc 1 229 13 is_stmt 1 view .LVU47
 219              		.loc 1 229 16 is_stmt 0 view .LVU48
 220 0050 341B     		subs	r4, r6, r4
 221              	.LVL13:
 222              		.loc 1 229 16 view .LVU49
 223 0052 5444     		add	r4, r4, r10
 224              	.LVL14:
 225              		.loc 1 229 16 view .LVU50
 226 0054 2700     		movs	r7, r4
 227              	.LVL15:
 230:Core/Src/main.c ****         				iteration = iteration + 1;
 228              		.loc 1 230 13 is_stmt 1 view .LVU51
ARM GAS  C:\Users\jonat\AppData\Local\Temp\ccTafFON.s 			page 9


 229              		.loc 1 230 23 is_stmt 0 view .LVU52
 230 0056 0123     		movs	r3, #1
 231 0058 9C46     		mov	ip, r3
 232 005a E044     		add	r8, r8, ip
 233              	.LVL16:
 234              	.L6:
 226:Core/Src/main.c ****         				temp = (xi^2)/S - (yi^2)/S;
 235              		.loc 1 226 46 is_stmt 1 view .LVU53
 236 005c 009B     		ldr	r3, [sp]
 237 005e 9845     		cmp	r8, r3
 238 0060 10DA     		bge	.L7
 226:Core/Src/main.c ****         				temp = (xi^2)/S - (yi^2)/S;
 239              		.loc 1 226 52 is_stmt 0 discriminator 1 view .LVU54
 240 0062 0224     		movs	r4, #2
 241 0064 3800     		movs	r0, r7
 242 0066 6040     		eors	r0, r4
 226:Core/Src/main.c ****         				temp = (xi^2)/S - (yi^2)/S;
 243              		.loc 1 226 55 discriminator 1 view .LVU55
 244 0068 3249     		ldr	r1, .L14+4
 245 006a FFF7FEFF 		bl	__aeabi_idiv
 246              	.LVL17:
 247 006e 0600     		movs	r6, r0
 226:Core/Src/main.c ****         				temp = (xi^2)/S - (yi^2)/S;
 248              		.loc 1 226 63 discriminator 1 view .LVU56
 249 0070 2000     		movs	r0, r4
 250 0072 6840     		eors	r0, r5
 226:Core/Src/main.c ****         				temp = (xi^2)/S - (yi^2)/S;
 251              		.loc 1 226 66 discriminator 1 view .LVU57
 252 0074 2F49     		ldr	r1, .L14+4
 253 0076 FFF7FEFF 		bl	__aeabi_idiv
 254              	.LVL18:
 255 007a 0400     		movs	r4, r0
 226:Core/Src/main.c ****         				temp = (xi^2)/S - (yi^2)/S;
 256              		.loc 1 226 58 discriminator 1 view .LVU58
 257 007c 3218     		adds	r2, r6, r0
 226:Core/Src/main.c ****         				temp = (xi^2)/S - (yi^2)/S;
 258              		.loc 1 226 46 discriminator 1 view .LVU59
 259 007e 2E4B     		ldr	r3, .L14+8
 260 0080 9A42     		cmp	r2, r3
 261 0082 DEDD     		ble	.L8
 262              	.L7:
 231:Core/Src/main.c ****         			};
 232:Core/Src/main.c ****         			mandelbrot_sum = mandelbrot_sum + iteration;
 263              		.loc 1 232 44 view .LVU60
 264 0084 4546     		mov	r5, r8
 265              	.LVL19:
 231:Core/Src/main.c ****         			};
 266              		.loc 1 231 13 is_stmt 1 view .LVU61
 267              		.loc 1 232 12 view .LVU62
 268              		.loc 1 232 44 is_stmt 0 view .LVU63
 269 0086 0295     		str	r5, [sp, #8]
 270 0088 EB17     		asrs	r3, r5, #31
 271 008a 0393     		str	r3, [sp, #12]
 272              		.loc 1 232 27 view .LVU64
 273 008c 049B     		ldr	r3, [sp, #16]
 274 008e 059C     		ldr	r4, [sp, #20]
 275 0090 0299     		ldr	r1, [sp, #8]
ARM GAS  C:\Users\jonat\AppData\Local\Temp\ccTafFON.s 			page 10


 276 0092 039A     		ldr	r2, [sp, #12]
 277 0094 5B18     		adds	r3, r3, r1
 278 0096 5441     		adcs	r4, r4, r2
 279 0098 0493     		str	r3, [sp, #16]
 280 009a 0594     		str	r4, [sp, #20]
 281              	.LVL20:
 220:Core/Src/main.c ****         			x0 = (((x/width)*S)*3500000)/S - 2500000;
 282              		.loc 1 220 43 is_stmt 1 discriminator 2 view .LVU65
 283 009c 019B     		ldr	r3, [sp, #4]
 284              	.LVL21:
 220:Core/Src/main.c ****         			x0 = (((x/width)*S)*3500000)/S - 2500000;
 285              		.loc 1 220 43 is_stmt 0 discriminator 2 view .LVU66
 286 009e 254A     		ldr	r2, .L14+4
 287 00a0 9446     		mov	ip, r2
 288 00a2 6344     		add	r3, r3, ip
 289 00a4 0193     		str	r3, [sp, #4]
 290              	.LVL22:
 291              	.L10:
 220:Core/Src/main.c ****         			x0 = (((x/width)*S)*3500000)/S - 2500000;
 292              		.loc 1 220 26 is_stmt 1 discriminator 1 view .LVU67
 220:Core/Src/main.c ****         			x0 = (((x/width)*S)*3500000)/S - 2500000;
 293              		.loc 1 220 34 is_stmt 0 discriminator 1 view .LVU68
 294 00a6 069B     		ldr	r3, [sp, #24]
 295 00a8 244A     		ldr	r2, .L14+12
 296 00aa 9446     		mov	ip, r2
 297 00ac 6344     		add	r3, r3, ip
 220:Core/Src/main.c ****         			x0 = (((x/width)*S)*3500000)/S - 2500000;
 298              		.loc 1 220 26 discriminator 1 view .LVU69
 299 00ae 019A     		ldr	r2, [sp, #4]
 300 00b0 9342     		cmp	r3, r2
 301 00b2 24DD     		ble	.L12
 221:Core/Src/main.c ****         			y0 = (((y/height)*S)*2000000)/S - 1000000;
 302              		.loc 1 221 12 is_stmt 1 view .LVU70
 221:Core/Src/main.c ****         			y0 = (((y/height)*S)*2000000)/S - 1000000;
 303              		.loc 1 221 21 is_stmt 0 view .LVU71
 304 00b4 0699     		ldr	r1, [sp, #24]
 305 00b6 0198     		ldr	r0, [sp, #4]
 306 00b8 FFF7FEFF 		bl	__aeabi_idiv
 307              	.LVL23:
 221:Core/Src/main.c ****         			y0 = (((y/height)*S)*2000000)/S - 1000000;
 308              		.loc 1 221 28 view .LVU72
 309 00bc 4201     		lsls	r2, r0, #5
 310 00be 121A     		subs	r2, r2, r0
 311 00c0 9301     		lsls	r3, r2, #6
 312 00c2 9B1A     		subs	r3, r3, r2
 313 00c4 DB00     		lsls	r3, r3, #3
 314 00c6 1B18     		adds	r3, r3, r0
 315 00c8 9B01     		lsls	r3, r3, #6
 221:Core/Src/main.c ****         			y0 = (((y/height)*S)*2000000)/S - 1000000;
 316              		.loc 1 221 31 view .LVU73
 317 00ca 1D48     		ldr	r0, .L14+16
 318 00cc 5843     		muls	r0, r3
 221:Core/Src/main.c ****         			y0 = (((y/height)*S)*2000000)/S - 1000000;
 319              		.loc 1 221 40 view .LVU74
 320 00ce 1949     		ldr	r1, .L14+4
 321 00d0 FFF7FEFF 		bl	__aeabi_idiv
 322              	.LVL24:
ARM GAS  C:\Users\jonat\AppData\Local\Temp\ccTafFON.s 			page 11


 221:Core/Src/main.c ****         			y0 = (((y/height)*S)*2000000)/S - 1000000;
 323              		.loc 1 221 15 view .LVU75
 324 00d4 1B4B     		ldr	r3, .L14+20
 325 00d6 9A46     		mov	r10, r3
 326 00d8 8244     		add	r10, r10, r0
 327              	.LVL25:
 222:Core/Src/main.c ****         			xi = 0;
 328              		.loc 1 222 12 is_stmt 1 view .LVU76
 222:Core/Src/main.c ****         			xi = 0;
 329              		.loc 1 222 21 is_stmt 0 view .LVU77
 330 00da 5946     		mov	r1, fp
 331 00dc 0798     		ldr	r0, [sp, #28]
 332 00de FFF7FEFF 		bl	__aeabi_idiv
 333              	.LVL26:
 222:Core/Src/main.c ****         			xi = 0;
 334              		.loc 1 222 41 view .LVU78
 335 00e2 4201     		lsls	r2, r0, #5
 336 00e4 121A     		subs	r2, r2, r0
 337 00e6 9301     		lsls	r3, r2, #6
 338 00e8 9B1A     		subs	r3, r3, r2
 339 00ea DB00     		lsls	r3, r3, #3
 340 00ec 1B18     		adds	r3, r3, r0
 341 00ee DB01     		lsls	r3, r3, #7
 222:Core/Src/main.c ****         			xi = 0;
 342              		.loc 1 222 15 view .LVU79
 343 00f0 124A     		ldr	r2, .L14+12
 344 00f2 9146     		mov	r9, r2
 345 00f4 9944     		add	r9, r9, r3
 346              	.LVL27:
 223:Core/Src/main.c ****         			yi = 0;
 347              		.loc 1 223 12 is_stmt 1 view .LVU80
 224:Core/Src/main.c ****         			iteration = 0;
 348              		.loc 1 224 12 view .LVU81
 225:Core/Src/main.c ****         			while((iteration < max_iterations)&&((xi^2)/S + (yi^2)/S <= 4*S)){
 349              		.loc 1 225 12 view .LVU82
 226:Core/Src/main.c ****         				temp = (xi^2)/S - (yi^2)/S;
 350              		.loc 1 226 12 view .LVU83
 225:Core/Src/main.c ****         			while((iteration < max_iterations)&&((xi^2)/S + (yi^2)/S <= 4*S)){
 351              		.loc 1 225 22 is_stmt 0 view .LVU84
 352 00f6 0025     		movs	r5, #0
 224:Core/Src/main.c ****         			iteration = 0;
 353              		.loc 1 224 15 view .LVU85
 354 00f8 0027     		movs	r7, #0
 355 00fa A846     		mov	r8, r5
 226:Core/Src/main.c ****         				temp = (xi^2)/S - (yi^2)/S;
 356              		.loc 1 226 17 view .LVU86
 357 00fc AEE7     		b	.L6
 358              	.LVL28:
 359              	.L12:
 219:Core/Src/main.c ****         		  for(x = 0; x < width - 1*S; x = x + 1*S){
 360              		.loc 1 219 43 discriminator 2 view .LVU87
 361 00fe D846     		mov	r8, fp
 233:Core/Src/main.c ****         		  };
 362              		.loc 1 233 14 is_stmt 1 view .LVU88
 219:Core/Src/main.c ****         		  for(x = 0; x < width - 1*S; x = x + 1*S){
 363              		.loc 1 219 43 discriminator 2 view .LVU89
 364 0100 079B     		ldr	r3, [sp, #28]
ARM GAS  C:\Users\jonat\AppData\Local\Temp\ccTafFON.s 			page 12


 365 0102 0C4A     		ldr	r2, .L14+4
 366              	.LVL29:
 219:Core/Src/main.c ****         		  for(x = 0; x < width - 1*S; x = x + 1*S){
 367              		.loc 1 219 43 is_stmt 0 discriminator 2 view .LVU90
 368 0104 9446     		mov	ip, r2
 369 0106 6344     		add	r3, r3, ip
 370 0108 0793     		str	r3, [sp, #28]
 371              	.LVL30:
 372              	.L5:
 219:Core/Src/main.c ****         		  for(x = 0; x < width - 1*S; x = x + 1*S){
 373              		.loc 1 219 25 is_stmt 1 discriminator 1 view .LVU91
 219:Core/Src/main.c ****         		  for(x = 0; x < width - 1*S; x = x + 1*S){
 374              		.loc 1 219 34 is_stmt 0 discriminator 1 view .LVU92
 375 010a 0C4B     		ldr	r3, .L14+12
 376 010c 4344     		add	r3, r3, r8
 219:Core/Src/main.c ****         		  for(x = 0; x < width - 1*S; x = x + 1*S){
 377              		.loc 1 219 25 discriminator 1 view .LVU93
 378 010e 079A     		ldr	r2, [sp, #28]
 379 0110 9342     		cmp	r3, r2
 380 0112 03DD     		ble	.L13
 220:Core/Src/main.c ****         			x0 = (((x/width)*S)*3500000)/S - 2500000;
 381              		.loc 1 220 19 view .LVU94
 382 0114 0023     		movs	r3, #0
 383 0116 0193     		str	r3, [sp, #4]
 384 0118 C346     		mov	fp, r8
 385 011a C4E7     		b	.L10
 386              	.L13:
 234:Core/Src/main.c ****         	  };
 387              		.loc 1 234 13 is_stmt 1 view .LVU95
 235:Core/Src/main.c ****           return mandelbrot_sum;
 388              		.loc 1 235 11 view .LVU96
 236:Core/Src/main.c **** 
 237:Core/Src/main.c **** }
 389              		.loc 1 237 1 is_stmt 0 view .LVU97
 390 011c 0498     		ldr	r0, [sp, #16]
 391 011e 0599     		ldr	r1, [sp, #20]
 392 0120 09B0     		add	sp, sp, #36
 393              	.LVL31:
 394              		.loc 1 237 1 view .LVU98
 395              		@ sp needed
 396              	.LVL32:
 397              		.loc 1 237 1 view .LVU99
 398 0122 F0BC     		pop	{r4, r5, r6, r7}
 399 0124 BB46     		mov	fp, r7
 400 0126 B246     		mov	r10, r6
 401 0128 A946     		mov	r9, r5
 402 012a A046     		mov	r8, r4
 403 012c F0BD     		pop	{r4, r5, r6, r7, pc}
 404              	.L15:
 405 012e C046     		.align	2
 406              	.L14:
 407 0130 20A10700 		.word	500000
 408 0134 40420F00 		.word	1000000
 409 0138 00093D00 		.word	4000000
 410 013c C0BDF0FF 		.word	-1000000
 411 0140 E0673500 		.word	3500000
 412 0144 60DAD9FF 		.word	-2500000
ARM GAS  C:\Users\jonat\AppData\Local\Temp\ccTafFON.s 			page 13


 413              		.cfi_endproc
 414              	.LFE43:
 416              		.section	.text.Error_Handler,"ax",%progbits
 417              		.align	1
 418              		.global	Error_Handler
 419              		.syntax unified
 420              		.code	16
 421              		.thumb_func
 423              	Error_Handler:
 424              	.LFB44:
 238:Core/Src/main.c **** 
 239:Core/Src/main.c **** //TODO: Mandelbroat using variable type double
 240:Core/Src/main.c **** //uint64_t calculate_mandelbrot_double(double width, double height, double max_iterations) {
 241:Core/Src/main.c **** //    uint64_t mandelbrot_sum = 0;
 242:Core/Src/main.c **** //
 243:Core/Src/main.c **** //    for (int py = 0; py < (int)height; py++) {
 244:Core/Src/main.c **** //        for (int px = 0; px < (int)width; px++) {
 245:Core/Src/main.c **** //            double x0 = ((double)px / width) * 3.5 - 2.5;
 246:Core/Src/main.c **** //            double y0 = ((double)py / height) * 2.0 - 1.0;
 247:Core/Src/main.c **** //
 248:Core/Src/main.c **** //            double xi = 0.0, yi = 0.0;
 249:Core/Src/main.c **** //            uint64_t iteration = 0;
 250:Core/Src/main.c **** //
 251:Core/Src/main.c **** //            while ((iteration < max_iterations) && ((xi * xi + yi * yi) <= 4.0)) {
 252:Core/Src/main.c **** //                double temp = xi * xi - yi * yi;
 253:Core/Src/main.c **** //                yi = 2.0 * xi * yi + y0;
 254:Core/Src/main.c **** //                xi = temp + x0;
 255:Core/Src/main.c **** //                iteration++;
 256:Core/Src/main.c **** //            }
 257:Core/Src/main.c **** //
 258:Core/Src/main.c **** //            mandelbrot_sum += iteration;
 259:Core/Src/main.c **** //        }
 260:Core/Src/main.c **** //    }
 261:Core/Src/main.c **** //
 262:Core/Src/main.c **** //    return mandelbrot_sum;
 263:Core/Src/main.c **** //}
 264:Core/Src/main.c **** 
 265:Core/Src/main.c **** 
 266:Core/Src/main.c **** /* USER CODE END 4 */
 267:Core/Src/main.c **** 
 268:Core/Src/main.c **** /**
 269:Core/Src/main.c ****   * @brief  This function is executed in case of error occurrence.
 270:Core/Src/main.c ****   * @retval None
 271:Core/Src/main.c ****   */
 272:Core/Src/main.c **** void Error_Handler(void)
 273:Core/Src/main.c **** {
 425              		.loc 1 273 1 is_stmt 1 view -0
 426              		.cfi_startproc
 427              		@ Volatile: function does not return.
 428              		@ args = 0, pretend = 0, frame = 0
 429              		@ frame_needed = 0, uses_anonymous_args = 0
 430              		@ link register save eliminated.
 274:Core/Src/main.c ****   /* USER CODE BEGIN Error_Handler_Debug */
 275:Core/Src/main.c ****   /* User can add his own implementation to report the HAL error return state */
 276:Core/Src/main.c ****   __disable_irq();
 431              		.loc 1 276 3 view .LVU101
 432              	.LBB6:
ARM GAS  C:\Users\jonat\AppData\Local\Temp\ccTafFON.s 			page 14


 433              	.LBI6:
 434              		.file 2 "Drivers/CMSIS/Include/cmsis_gcc.h"
   1:Drivers/CMSIS/Include/cmsis_gcc.h **** /**************************************************************************//**
   2:Drivers/CMSIS/Include/cmsis_gcc.h ****  * @file     cmsis_gcc.h
   3:Drivers/CMSIS/Include/cmsis_gcc.h ****  * @brief    CMSIS compiler GCC header file
   4:Drivers/CMSIS/Include/cmsis_gcc.h ****  * @version  V5.0.4
   5:Drivers/CMSIS/Include/cmsis_gcc.h ****  * @date     09. April 2018
   6:Drivers/CMSIS/Include/cmsis_gcc.h ****  ******************************************************************************/
   7:Drivers/CMSIS/Include/cmsis_gcc.h **** /*
   8:Drivers/CMSIS/Include/cmsis_gcc.h ****  * Copyright (c) 2009-2018 Arm Limited. All rights reserved.
   9:Drivers/CMSIS/Include/cmsis_gcc.h ****  *
  10:Drivers/CMSIS/Include/cmsis_gcc.h ****  * SPDX-License-Identifier: Apache-2.0
  11:Drivers/CMSIS/Include/cmsis_gcc.h ****  *
  12:Drivers/CMSIS/Include/cmsis_gcc.h ****  * Licensed under the Apache License, Version 2.0 (the License); you may
  13:Drivers/CMSIS/Include/cmsis_gcc.h ****  * not use this file except in compliance with the License.
  14:Drivers/CMSIS/Include/cmsis_gcc.h ****  * You may obtain a copy of the License at
  15:Drivers/CMSIS/Include/cmsis_gcc.h ****  *
  16:Drivers/CMSIS/Include/cmsis_gcc.h ****  * www.apache.org/licenses/LICENSE-2.0
  17:Drivers/CMSIS/Include/cmsis_gcc.h ****  *
  18:Drivers/CMSIS/Include/cmsis_gcc.h ****  * Unless required by applicable law or agreed to in writing, software
  19:Drivers/CMSIS/Include/cmsis_gcc.h ****  * distributed under the License is distributed on an AS IS BASIS, WITHOUT
  20:Drivers/CMSIS/Include/cmsis_gcc.h ****  * WARRANTIES OR CONDITIONS OF ANY KIND, either express or implied.
  21:Drivers/CMSIS/Include/cmsis_gcc.h ****  * See the License for the specific language governing permissions and
  22:Drivers/CMSIS/Include/cmsis_gcc.h ****  * limitations under the License.
  23:Drivers/CMSIS/Include/cmsis_gcc.h ****  */
  24:Drivers/CMSIS/Include/cmsis_gcc.h **** 
  25:Drivers/CMSIS/Include/cmsis_gcc.h **** #ifndef __CMSIS_GCC_H
  26:Drivers/CMSIS/Include/cmsis_gcc.h **** #define __CMSIS_GCC_H
  27:Drivers/CMSIS/Include/cmsis_gcc.h **** 
  28:Drivers/CMSIS/Include/cmsis_gcc.h **** /* ignore some GCC warnings */
  29:Drivers/CMSIS/Include/cmsis_gcc.h **** #pragma GCC diagnostic push
  30:Drivers/CMSIS/Include/cmsis_gcc.h **** #pragma GCC diagnostic ignored "-Wsign-conversion"
  31:Drivers/CMSIS/Include/cmsis_gcc.h **** #pragma GCC diagnostic ignored "-Wconversion"
  32:Drivers/CMSIS/Include/cmsis_gcc.h **** #pragma GCC diagnostic ignored "-Wunused-parameter"
  33:Drivers/CMSIS/Include/cmsis_gcc.h **** 
  34:Drivers/CMSIS/Include/cmsis_gcc.h **** /* Fallback for __has_builtin */
  35:Drivers/CMSIS/Include/cmsis_gcc.h **** #ifndef __has_builtin
  36:Drivers/CMSIS/Include/cmsis_gcc.h ****   #define __has_builtin(x) (0)
  37:Drivers/CMSIS/Include/cmsis_gcc.h **** #endif
  38:Drivers/CMSIS/Include/cmsis_gcc.h **** 
  39:Drivers/CMSIS/Include/cmsis_gcc.h **** /* CMSIS compiler specific defines */
  40:Drivers/CMSIS/Include/cmsis_gcc.h **** #ifndef   __ASM
  41:Drivers/CMSIS/Include/cmsis_gcc.h ****   #define __ASM                                  __asm
  42:Drivers/CMSIS/Include/cmsis_gcc.h **** #endif
  43:Drivers/CMSIS/Include/cmsis_gcc.h **** #ifndef   __INLINE
  44:Drivers/CMSIS/Include/cmsis_gcc.h ****   #define __INLINE                               inline
  45:Drivers/CMSIS/Include/cmsis_gcc.h **** #endif
  46:Drivers/CMSIS/Include/cmsis_gcc.h **** #ifndef   __STATIC_INLINE
  47:Drivers/CMSIS/Include/cmsis_gcc.h ****   #define __STATIC_INLINE                        static inline
  48:Drivers/CMSIS/Include/cmsis_gcc.h **** #endif
  49:Drivers/CMSIS/Include/cmsis_gcc.h **** #ifndef   __STATIC_FORCEINLINE                 
  50:Drivers/CMSIS/Include/cmsis_gcc.h ****   #define __STATIC_FORCEINLINE                   __attribute__((always_inline)) static inline
  51:Drivers/CMSIS/Include/cmsis_gcc.h **** #endif                                           
  52:Drivers/CMSIS/Include/cmsis_gcc.h **** #ifndef   __NO_RETURN
  53:Drivers/CMSIS/Include/cmsis_gcc.h ****   #define __NO_RETURN                            __attribute__((__noreturn__))
  54:Drivers/CMSIS/Include/cmsis_gcc.h **** #endif
  55:Drivers/CMSIS/Include/cmsis_gcc.h **** #ifndef   __USED
ARM GAS  C:\Users\jonat\AppData\Local\Temp\ccTafFON.s 			page 15


  56:Drivers/CMSIS/Include/cmsis_gcc.h ****   #define __USED                                 __attribute__((used))
  57:Drivers/CMSIS/Include/cmsis_gcc.h **** #endif
  58:Drivers/CMSIS/Include/cmsis_gcc.h **** #ifndef   __WEAK
  59:Drivers/CMSIS/Include/cmsis_gcc.h ****   #define __WEAK                                 __attribute__((weak))
  60:Drivers/CMSIS/Include/cmsis_gcc.h **** #endif
  61:Drivers/CMSIS/Include/cmsis_gcc.h **** #ifndef   __PACKED
  62:Drivers/CMSIS/Include/cmsis_gcc.h ****   #define __PACKED                               __attribute__((packed, aligned(1)))
  63:Drivers/CMSIS/Include/cmsis_gcc.h **** #endif
  64:Drivers/CMSIS/Include/cmsis_gcc.h **** #ifndef   __PACKED_STRUCT
  65:Drivers/CMSIS/Include/cmsis_gcc.h ****   #define __PACKED_STRUCT                        struct __attribute__((packed, aligned(1)))
  66:Drivers/CMSIS/Include/cmsis_gcc.h **** #endif
  67:Drivers/CMSIS/Include/cmsis_gcc.h **** #ifndef   __PACKED_UNION
  68:Drivers/CMSIS/Include/cmsis_gcc.h ****   #define __PACKED_UNION                         union __attribute__((packed, aligned(1)))
  69:Drivers/CMSIS/Include/cmsis_gcc.h **** #endif
  70:Drivers/CMSIS/Include/cmsis_gcc.h **** #ifndef   __UNALIGNED_UINT32        /* deprecated */
  71:Drivers/CMSIS/Include/cmsis_gcc.h ****   #pragma GCC diagnostic push
  72:Drivers/CMSIS/Include/cmsis_gcc.h ****   #pragma GCC diagnostic ignored "-Wpacked"
  73:Drivers/CMSIS/Include/cmsis_gcc.h ****   #pragma GCC diagnostic ignored "-Wattributes"
  74:Drivers/CMSIS/Include/cmsis_gcc.h ****   struct __attribute__((packed)) T_UINT32 { uint32_t v; };
  75:Drivers/CMSIS/Include/cmsis_gcc.h ****   #pragma GCC diagnostic pop
  76:Drivers/CMSIS/Include/cmsis_gcc.h ****   #define __UNALIGNED_UINT32(x)                  (((struct T_UINT32 *)(x))->v)
  77:Drivers/CMSIS/Include/cmsis_gcc.h **** #endif
  78:Drivers/CMSIS/Include/cmsis_gcc.h **** #ifndef   __UNALIGNED_UINT16_WRITE
  79:Drivers/CMSIS/Include/cmsis_gcc.h ****   #pragma GCC diagnostic push
  80:Drivers/CMSIS/Include/cmsis_gcc.h ****   #pragma GCC diagnostic ignored "-Wpacked"
  81:Drivers/CMSIS/Include/cmsis_gcc.h ****   #pragma GCC diagnostic ignored "-Wattributes"
  82:Drivers/CMSIS/Include/cmsis_gcc.h ****   __PACKED_STRUCT T_UINT16_WRITE { uint16_t v; };
  83:Drivers/CMSIS/Include/cmsis_gcc.h ****   #pragma GCC diagnostic pop
  84:Drivers/CMSIS/Include/cmsis_gcc.h ****   #define __UNALIGNED_UINT16_WRITE(addr, val)    (void)((((struct T_UINT16_WRITE *)(void *)(addr))-
  85:Drivers/CMSIS/Include/cmsis_gcc.h **** #endif
  86:Drivers/CMSIS/Include/cmsis_gcc.h **** #ifndef   __UNALIGNED_UINT16_READ
  87:Drivers/CMSIS/Include/cmsis_gcc.h ****   #pragma GCC diagnostic push
  88:Drivers/CMSIS/Include/cmsis_gcc.h ****   #pragma GCC diagnostic ignored "-Wpacked"
  89:Drivers/CMSIS/Include/cmsis_gcc.h ****   #pragma GCC diagnostic ignored "-Wattributes"
  90:Drivers/CMSIS/Include/cmsis_gcc.h ****   __PACKED_STRUCT T_UINT16_READ { uint16_t v; };
  91:Drivers/CMSIS/Include/cmsis_gcc.h ****   #pragma GCC diagnostic pop
  92:Drivers/CMSIS/Include/cmsis_gcc.h ****   #define __UNALIGNED_UINT16_READ(addr)          (((const struct T_UINT16_READ *)(const void *)(add
  93:Drivers/CMSIS/Include/cmsis_gcc.h **** #endif
  94:Drivers/CMSIS/Include/cmsis_gcc.h **** #ifndef   __UNALIGNED_UINT32_WRITE
  95:Drivers/CMSIS/Include/cmsis_gcc.h ****   #pragma GCC diagnostic push
  96:Drivers/CMSIS/Include/cmsis_gcc.h ****   #pragma GCC diagnostic ignored "-Wpacked"
  97:Drivers/CMSIS/Include/cmsis_gcc.h ****   #pragma GCC diagnostic ignored "-Wattributes"
  98:Drivers/CMSIS/Include/cmsis_gcc.h ****   __PACKED_STRUCT T_UINT32_WRITE { uint32_t v; };
  99:Drivers/CMSIS/Include/cmsis_gcc.h ****   #pragma GCC diagnostic pop
 100:Drivers/CMSIS/Include/cmsis_gcc.h ****   #define __UNALIGNED_UINT32_WRITE(addr, val)    (void)((((struct T_UINT32_WRITE *)(void *)(addr))-
 101:Drivers/CMSIS/Include/cmsis_gcc.h **** #endif
 102:Drivers/CMSIS/Include/cmsis_gcc.h **** #ifndef   __UNALIGNED_UINT32_READ
 103:Drivers/CMSIS/Include/cmsis_gcc.h ****   #pragma GCC diagnostic push
 104:Drivers/CMSIS/Include/cmsis_gcc.h ****   #pragma GCC diagnostic ignored "-Wpacked"
 105:Drivers/CMSIS/Include/cmsis_gcc.h ****   #pragma GCC diagnostic ignored "-Wattributes"
 106:Drivers/CMSIS/Include/cmsis_gcc.h ****   __PACKED_STRUCT T_UINT32_READ { uint32_t v; };
 107:Drivers/CMSIS/Include/cmsis_gcc.h ****   #pragma GCC diagnostic pop
 108:Drivers/CMSIS/Include/cmsis_gcc.h ****   #define __UNALIGNED_UINT32_READ(addr)          (((const struct T_UINT32_READ *)(const void *)(add
 109:Drivers/CMSIS/Include/cmsis_gcc.h **** #endif
 110:Drivers/CMSIS/Include/cmsis_gcc.h **** #ifndef   __ALIGNED
 111:Drivers/CMSIS/Include/cmsis_gcc.h ****   #define __ALIGNED(x)                           __attribute__((aligned(x)))
 112:Drivers/CMSIS/Include/cmsis_gcc.h **** #endif
ARM GAS  C:\Users\jonat\AppData\Local\Temp\ccTafFON.s 			page 16


 113:Drivers/CMSIS/Include/cmsis_gcc.h **** #ifndef   __RESTRICT
 114:Drivers/CMSIS/Include/cmsis_gcc.h ****   #define __RESTRICT                             __restrict
 115:Drivers/CMSIS/Include/cmsis_gcc.h **** #endif
 116:Drivers/CMSIS/Include/cmsis_gcc.h **** 
 117:Drivers/CMSIS/Include/cmsis_gcc.h **** 
 118:Drivers/CMSIS/Include/cmsis_gcc.h **** /* ###########################  Core Function Access  ########################### */
 119:Drivers/CMSIS/Include/cmsis_gcc.h **** /** \ingroup  CMSIS_Core_FunctionInterface
 120:Drivers/CMSIS/Include/cmsis_gcc.h ****     \defgroup CMSIS_Core_RegAccFunctions CMSIS Core Register Access Functions
 121:Drivers/CMSIS/Include/cmsis_gcc.h ****   @{
 122:Drivers/CMSIS/Include/cmsis_gcc.h ****  */
 123:Drivers/CMSIS/Include/cmsis_gcc.h **** 
 124:Drivers/CMSIS/Include/cmsis_gcc.h **** /**
 125:Drivers/CMSIS/Include/cmsis_gcc.h ****   \brief   Enable IRQ Interrupts
 126:Drivers/CMSIS/Include/cmsis_gcc.h ****   \details Enables IRQ interrupts by clearing the I-bit in the CPSR.
 127:Drivers/CMSIS/Include/cmsis_gcc.h ****            Can only be executed in Privileged modes.
 128:Drivers/CMSIS/Include/cmsis_gcc.h ****  */
 129:Drivers/CMSIS/Include/cmsis_gcc.h **** __STATIC_FORCEINLINE void __enable_irq(void)
 130:Drivers/CMSIS/Include/cmsis_gcc.h **** {
 131:Drivers/CMSIS/Include/cmsis_gcc.h ****   __ASM volatile ("cpsie i" : : : "memory");
 132:Drivers/CMSIS/Include/cmsis_gcc.h **** }
 133:Drivers/CMSIS/Include/cmsis_gcc.h **** 
 134:Drivers/CMSIS/Include/cmsis_gcc.h **** 
 135:Drivers/CMSIS/Include/cmsis_gcc.h **** /**
 136:Drivers/CMSIS/Include/cmsis_gcc.h ****   \brief   Disable IRQ Interrupts
 137:Drivers/CMSIS/Include/cmsis_gcc.h ****   \details Disables IRQ interrupts by setting the I-bit in the CPSR.
 138:Drivers/CMSIS/Include/cmsis_gcc.h ****            Can only be executed in Privileged modes.
 139:Drivers/CMSIS/Include/cmsis_gcc.h ****  */
 140:Drivers/CMSIS/Include/cmsis_gcc.h **** __STATIC_FORCEINLINE void __disable_irq(void)
 435              		.loc 2 140 27 view .LVU102
 436              	.LBB7:
 141:Drivers/CMSIS/Include/cmsis_gcc.h **** {
 142:Drivers/CMSIS/Include/cmsis_gcc.h ****   __ASM volatile ("cpsid i" : : : "memory");
 437              		.loc 2 142 3 view .LVU103
 438              		.syntax divided
 439              	@ 142 "Drivers/CMSIS/Include/cmsis_gcc.h" 1
 440 0000 72B6     		cpsid i
 441              	@ 0 "" 2
 442              		.thumb
 443              		.syntax unified
 444              	.L17:
 445              	.LBE7:
 446              	.LBE6:
 277:Core/Src/main.c ****   while (1)
 447              		.loc 1 277 3 view .LVU104
 278:Core/Src/main.c ****   {
 279:Core/Src/main.c ****   }
 448              		.loc 1 279 3 view .LVU105
 277:Core/Src/main.c ****   while (1)
 449              		.loc 1 277 9 view .LVU106
 450 0002 FEE7     		b	.L17
 451              		.cfi_endproc
 452              	.LFE44:
 454              		.section	.text.SystemClock_Config,"ax",%progbits
 455              		.align	1
 456              		.global	SystemClock_Config
 457              		.syntax unified
 458              		.code	16
ARM GAS  C:\Users\jonat\AppData\Local\Temp\ccTafFON.s 			page 17


 459              		.thumb_func
 461              	SystemClock_Config:
 462              	.LFB41:
 148:Core/Src/main.c ****   RCC_OscInitTypeDef RCC_OscInitStruct = {0};
 463              		.loc 1 148 1 view -0
 464              		.cfi_startproc
 465              		@ args = 0, pretend = 0, frame = 64
 466              		@ frame_needed = 0, uses_anonymous_args = 0
 467 0000 00B5     		push	{lr}
 468              	.LCFI5:
 469              		.cfi_def_cfa_offset 4
 470              		.cfi_offset 14, -4
 471 0002 91B0     		sub	sp, sp, #68
 472              	.LCFI6:
 473              		.cfi_def_cfa_offset 72
 149:Core/Src/main.c ****   RCC_ClkInitTypeDef RCC_ClkInitStruct = {0};
 474              		.loc 1 149 3 view .LVU108
 149:Core/Src/main.c ****   RCC_ClkInitTypeDef RCC_ClkInitStruct = {0};
 475              		.loc 1 149 22 is_stmt 0 view .LVU109
 476 0004 3022     		movs	r2, #48
 477 0006 0021     		movs	r1, #0
 478 0008 04A8     		add	r0, sp, #16
 479 000a FFF7FEFF 		bl	memset
 480              	.LVL33:
 150:Core/Src/main.c **** 
 481              		.loc 1 150 3 is_stmt 1 view .LVU110
 150:Core/Src/main.c **** 
 482              		.loc 1 150 22 is_stmt 0 view .LVU111
 483 000e 1022     		movs	r2, #16
 484 0010 0021     		movs	r1, #0
 485 0012 6846     		mov	r0, sp
 486 0014 FFF7FEFF 		bl	memset
 487              	.LVL34:
 155:Core/Src/main.c ****   RCC_OscInitStruct.HSIState = RCC_HSI_ON;
 488              		.loc 1 155 3 is_stmt 1 view .LVU112
 155:Core/Src/main.c ****   RCC_OscInitStruct.HSIState = RCC_HSI_ON;
 489              		.loc 1 155 36 is_stmt 0 view .LVU113
 490 0018 0223     		movs	r3, #2
 491 001a 0493     		str	r3, [sp, #16]
 156:Core/Src/main.c ****   RCC_OscInitStruct.HSICalibrationValue = RCC_HSICALIBRATION_DEFAULT;
 492              		.loc 1 156 3 is_stmt 1 view .LVU114
 156:Core/Src/main.c ****   RCC_OscInitStruct.HSICalibrationValue = RCC_HSICALIBRATION_DEFAULT;
 493              		.loc 1 156 30 is_stmt 0 view .LVU115
 494 001c 013B     		subs	r3, r3, #1
 495 001e 0793     		str	r3, [sp, #28]
 157:Core/Src/main.c ****   RCC_OscInitStruct.PLL.PLLState = RCC_PLL_NONE;
 496              		.loc 1 157 3 is_stmt 1 view .LVU116
 157:Core/Src/main.c ****   RCC_OscInitStruct.PLL.PLLState = RCC_PLL_NONE;
 497              		.loc 1 157 41 is_stmt 0 view .LVU117
 498 0020 0F33     		adds	r3, r3, #15
 499 0022 0893     		str	r3, [sp, #32]
 158:Core/Src/main.c ****   if (HAL_RCC_OscConfig(&RCC_OscInitStruct) != HAL_OK)
 500              		.loc 1 158 3 is_stmt 1 view .LVU118
 159:Core/Src/main.c ****   {
 501              		.loc 1 159 3 view .LVU119
 159:Core/Src/main.c ****   {
 502              		.loc 1 159 7 is_stmt 0 view .LVU120
ARM GAS  C:\Users\jonat\AppData\Local\Temp\ccTafFON.s 			page 18


 503 0024 04A8     		add	r0, sp, #16
 504 0026 FFF7FEFF 		bl	HAL_RCC_OscConfig
 505              	.LVL35:
 159:Core/Src/main.c ****   {
 506              		.loc 1 159 6 discriminator 1 view .LVU121
 507 002a 0028     		cmp	r0, #0
 508 002c 0DD1     		bne	.L21
 166:Core/Src/main.c ****                               |RCC_CLOCKTYPE_PCLK1;
 509              		.loc 1 166 3 is_stmt 1 view .LVU122
 166:Core/Src/main.c ****                               |RCC_CLOCKTYPE_PCLK1;
 510              		.loc 1 166 31 is_stmt 0 view .LVU123
 511 002e 0723     		movs	r3, #7
 512 0030 0093     		str	r3, [sp]
 168:Core/Src/main.c ****   RCC_ClkInitStruct.AHBCLKDivider = RCC_SYSCLK_DIV1;
 513              		.loc 1 168 3 is_stmt 1 view .LVU124
 168:Core/Src/main.c ****   RCC_ClkInitStruct.AHBCLKDivider = RCC_SYSCLK_DIV1;
 514              		.loc 1 168 34 is_stmt 0 view .LVU125
 515 0032 0023     		movs	r3, #0
 516 0034 0193     		str	r3, [sp, #4]
 169:Core/Src/main.c ****   RCC_ClkInitStruct.APB1CLKDivider = RCC_HCLK_DIV1;
 517              		.loc 1 169 3 is_stmt 1 view .LVU126
 169:Core/Src/main.c ****   RCC_ClkInitStruct.APB1CLKDivider = RCC_HCLK_DIV1;
 518              		.loc 1 169 35 is_stmt 0 view .LVU127
 519 0036 0293     		str	r3, [sp, #8]
 170:Core/Src/main.c **** 
 520              		.loc 1 170 3 is_stmt 1 view .LVU128
 170:Core/Src/main.c **** 
 521              		.loc 1 170 36 is_stmt 0 view .LVU129
 522 0038 0393     		str	r3, [sp, #12]
 172:Core/Src/main.c ****   {
 523              		.loc 1 172 3 is_stmt 1 view .LVU130
 172:Core/Src/main.c ****   {
 524              		.loc 1 172 7 is_stmt 0 view .LVU131
 525 003a 0021     		movs	r1, #0
 526 003c 6846     		mov	r0, sp
 527 003e FFF7FEFF 		bl	HAL_RCC_ClockConfig
 528              	.LVL36:
 172:Core/Src/main.c ****   {
 529              		.loc 1 172 6 discriminator 1 view .LVU132
 530 0042 0028     		cmp	r0, #0
 531 0044 03D1     		bne	.L22
 176:Core/Src/main.c **** 
 532              		.loc 1 176 1 view .LVU133
 533 0046 11B0     		add	sp, sp, #68
 534              		@ sp needed
 535 0048 00BD     		pop	{pc}
 536              	.L21:
 161:Core/Src/main.c ****   }
 537              		.loc 1 161 5 is_stmt 1 view .LVU134
 538 004a FFF7FEFF 		bl	Error_Handler
 539              	.LVL37:
 540              	.L22:
 174:Core/Src/main.c ****   }
 541              		.loc 1 174 5 view .LVU135
 542 004e FFF7FEFF 		bl	Error_Handler
 543              	.LVL38:
 544              		.cfi_endproc
ARM GAS  C:\Users\jonat\AppData\Local\Temp\ccTafFON.s 			page 19


 545              	.LFE41:
 547              		.section	.text.main,"ax",%progbits
 548              		.align	1
 549              		.global	main
 550              		.syntax unified
 551              		.code	16
 552              		.thumb_func
 554              	main:
 555              	.LFB40:
  74:Core/Src/main.c ****   /* USER CODE BEGIN 1 */
 556              		.loc 1 74 1 view -0
 557              		.cfi_startproc
 558              		@ args = 0, pretend = 0, frame = 0
 559              		@ frame_needed = 0, uses_anonymous_args = 0
 560 0000 70B5     		push	{r4, r5, r6, lr}
 561              	.LCFI7:
 562              		.cfi_def_cfa_offset 16
 563              		.cfi_offset 4, -16
 564              		.cfi_offset 5, -12
 565              		.cfi_offset 6, -8
 566              		.cfi_offset 14, -4
  82:Core/Src/main.c **** 
 567              		.loc 1 82 3 view .LVU137
 568 0002 FFF7FEFF 		bl	HAL_Init
 569              	.LVL39:
  89:Core/Src/main.c **** 
 570              		.loc 1 89 3 view .LVU138
 571 0006 FFF7FEFF 		bl	SystemClock_Config
 572              	.LVL40:
  96:Core/Src/main.c ****   /* USER CODE BEGIN 2 */
 573              		.loc 1 96 3 view .LVU139
 574 000a FFF7FEFF 		bl	MX_GPIO_Init
 575              	.LVL41:
  99:Core/Src/main.c **** 
 576              		.loc 1 99 3 view .LVU140
  99:Core/Src/main.c **** 
 577              		.loc 1 99 9 is_stmt 0 view .LVU141
 578 000e 144C     		ldr	r4, .L25
 579 0010 6369     		ldr	r3, [r4, #20]
  99:Core/Src/main.c **** 
 580              		.loc 1 99 16 view .LVU142
 581 0012 0122     		movs	r2, #1
 582 0014 1343     		orrs	r3, r2
 583 0016 6361     		str	r3, [r4, #20]
 101:Core/Src/main.c ****    width = height = imageSize[0];
 584              		.loc 1 101 3 is_stmt 1 view .LVU143
 102:Core/Src/main.c ****    //width = height = imageSize[1];
 585              		.loc 1 102 4 view .LVU144
 102:Core/Src/main.c ****    //width = height = imageSize[1];
 586              		.loc 1 102 19 is_stmt 0 view .LVU145
 587 0018 124B     		ldr	r3, .L25+4
 588 001a 1E68     		ldr	r6, [r3]
 589              	.LVL42:
 109:Core/Src/main.c ****   
 590              		.loc 1 109 3 is_stmt 1 view .LVU146
 109:Core/Src/main.c ****   
 591              		.loc 1 109 16 is_stmt 0 view .LVU147
ARM GAS  C:\Users\jonat\AppData\Local\Temp\ccTafFON.s 			page 20


 592 001c FFF7FEFF 		bl	HAL_GetTick
 593              	.LVL43:
 109:Core/Src/main.c ****   
 594              		.loc 1 109 14 discriminator 1 view .LVU148
 595 0020 114D     		ldr	r5, .L25+8
 596 0022 2860     		str	r0, [r5]
 113:Core/Src/main.c **** 
 597              		.loc 1 113 3 is_stmt 1 view .LVU149
 113:Core/Src/main.c **** 
 598              		.loc 1 113 14 is_stmt 0 view .LVU150
 599 0024 6422     		movs	r2, #100
 600 0026 3100     		movs	r1, r6
 601 0028 3000     		movs	r0, r6
 602 002a FFF7FEFF 		bl	calculate_mandelbrot_fixed_point_arithmetic
 603              	.LVL44:
 113:Core/Src/main.c **** 
 604              		.loc 1 113 12 discriminator 1 view .LVU151
 605 002e 0F4B     		ldr	r3, .L25+12
 606 0030 1860     		str	r0, [r3]
 607 0032 5960     		str	r1, [r3, #4]
 116:Core/Src/main.c **** 
 608              		.loc 1 116 3 is_stmt 1 view .LVU152
 116:Core/Src/main.c **** 
 609              		.loc 1 116 14 is_stmt 0 view .LVU153
 610 0034 FFF7FEFF 		bl	HAL_GetTick
 611              	.LVL45:
 116:Core/Src/main.c **** 
 612              		.loc 1 116 12 discriminator 1 view .LVU154
 613 0038 0D4B     		ldr	r3, .L25+16
 614 003a 1860     		str	r0, [r3]
 119:Core/Src/main.c **** 
 615              		.loc 1 119 4 is_stmt 1 view .LVU155
 119:Core/Src/main.c **** 
 616              		.loc 1 119 30 is_stmt 0 view .LVU156
 617 003c 2B68     		ldr	r3, [r5]
 618 003e C01A     		subs	r0, r0, r3
 119:Core/Src/main.c **** 
 619              		.loc 1 119 19 view .LVU157
 620 0040 0C4B     		ldr	r3, .L25+20
 621 0042 1860     		str	r0, [r3]
 122:Core/Src/main.c **** 
 622              		.loc 1 122 4 is_stmt 1 view .LVU158
 122:Core/Src/main.c **** 
 623              		.loc 1 122 10 is_stmt 0 view .LVU159
 624 0044 6369     		ldr	r3, [r4, #20]
 122:Core/Src/main.c **** 
 625              		.loc 1 122 17 view .LVU160
 626 0046 0222     		movs	r2, #2
 627 0048 1343     		orrs	r3, r2
 628 004a 6361     		str	r3, [r4, #20]
 125:Core/Src/main.c **** 
 629              		.loc 1 125 4 is_stmt 1 view .LVU161
 630 004c FA20     		movs	r0, #250
 631 004e 8000     		lsls	r0, r0, #2
 632 0050 FFF7FEFF 		bl	HAL_Delay
 633              	.LVL46:
 128:Core/Src/main.c **** 
ARM GAS  C:\Users\jonat\AppData\Local\Temp\ccTafFON.s 			page 21


 634              		.loc 1 128 4 view .LVU162
 128:Core/Src/main.c **** 
 635              		.loc 1 128 9 is_stmt 0 view .LVU163
 636 0054 6369     		ldr	r3, [r4, #20]
 128:Core/Src/main.c **** 
 637              		.loc 1 128 15 view .LVU164
 638 0056 0322     		movs	r2, #3
 639 0058 9343     		bics	r3, r2
 640 005a 6361     		str	r3, [r4, #20]
 641              	.L24:
 134:Core/Src/main.c ****   {
 642              		.loc 1 134 3 is_stmt 1 view .LVU165
 139:Core/Src/main.c ****   /* USER CODE END 3 */
 643              		.loc 1 139 3 view .LVU166
 134:Core/Src/main.c ****   {
 644              		.loc 1 134 9 view .LVU167
 645 005c FEE7     		b	.L24
 646              	.L26:
 647 005e C046     		.align	2
 648              	.L25:
 649 0060 00040048 		.word	1207960576
 650 0064 00000000 		.word	imageSize
 651 0068 00000000 		.word	start_time
 652 006c 00000000 		.word	checksum
 653 0070 00000000 		.word	end_time
 654 0074 00000000 		.word	execution_time
 655              		.cfi_endproc
 656              	.LFE40:
 658              		.global	imageSize
 659              		.section	.data.imageSize,"aw"
 660              		.align	2
 663              	imageSize:
 664 0000 80000000 		.word	128
 665 0004 A0000000 		.word	160
 666 0008 C0000000 		.word	192
 667 000c E0000000 		.word	224
 668 0010 00010000 		.word	256
 669              		.global	checksum
 670              		.section	.bss.checksum,"aw",%nobits
 671              		.align	3
 674              	checksum:
 675 0000 00000000 		.space	8
 675      00000000 
 676              		.global	execution_time
 677              		.section	.bss.execution_time,"aw",%nobits
 678              		.align	2
 681              	execution_time:
 682 0000 00000000 		.space	4
 683              		.global	end_time
 684              		.section	.bss.end_time,"aw",%nobits
 685              		.align	2
 688              	end_time:
 689 0000 00000000 		.space	4
 690              		.global	start_time
 691              		.section	.bss.start_time,"aw",%nobits
 692              		.align	2
 695              	start_time:
ARM GAS  C:\Users\jonat\AppData\Local\Temp\ccTafFON.s 			page 22


 696 0000 00000000 		.space	4
 697              		.text
 698              	.Letext0:
 699              		.file 3 "C:\\ST\\STM32CubeIDE_1.19.0\\STM32CubeIDE\\plugins\\com.st.stm32cube.ide.mcu.externaltool
 700              		.file 4 "C:\\ST\\STM32CubeIDE_1.19.0\\STM32CubeIDE\\plugins\\com.st.stm32cube.ide.mcu.externaltool
 701              		.file 5 "Drivers/CMSIS/Device/ST/STM32F0xx/Include/stm32f051x8.h"
 702              		.file 6 "Drivers/STM32F0xx_HAL_Driver/Inc/stm32f0xx_hal_def.h"
 703              		.file 7 "Drivers/STM32F0xx_HAL_Driver/Inc/stm32f0xx_hal_rcc.h"
 704              		.file 8 "Drivers/STM32F0xx_HAL_Driver/Inc/stm32f0xx_hal_gpio.h"
 705              		.file 9 "Drivers/STM32F0xx_HAL_Driver/Inc/stm32f0xx_hal.h"
 706              		.file 10 "<built-in>"
ARM GAS  C:\Users\jonat\AppData\Local\Temp\ccTafFON.s 			page 23


DEFINED SYMBOLS
                            *ABS*:00000000 main.c
C:\Users\jonat\AppData\Local\Temp\ccTafFON.s:19     .text.MX_GPIO_Init:00000000 $t
C:\Users\jonat\AppData\Local\Temp\ccTafFON.s:24     .text.MX_GPIO_Init:00000000 MX_GPIO_Init
C:\Users\jonat\AppData\Local\Temp\ccTafFON.s:114    .text.MX_GPIO_Init:0000005c $d
C:\Users\jonat\AppData\Local\Temp\ccTafFON.s:121    .text.calculate_mandelbrot_fixed_point_arithmetic:00000000 $t
C:\Users\jonat\AppData\Local\Temp\ccTafFON.s:127    .text.calculate_mandelbrot_fixed_point_arithmetic:00000000 calculate_mandelbrot_fixed_point_arithmetic
C:\Users\jonat\AppData\Local\Temp\ccTafFON.s:407    .text.calculate_mandelbrot_fixed_point_arithmetic:00000130 $d
C:\Users\jonat\AppData\Local\Temp\ccTafFON.s:417    .text.Error_Handler:00000000 $t
C:\Users\jonat\AppData\Local\Temp\ccTafFON.s:423    .text.Error_Handler:00000000 Error_Handler
C:\Users\jonat\AppData\Local\Temp\ccTafFON.s:455    .text.SystemClock_Config:00000000 $t
C:\Users\jonat\AppData\Local\Temp\ccTafFON.s:461    .text.SystemClock_Config:00000000 SystemClock_Config
C:\Users\jonat\AppData\Local\Temp\ccTafFON.s:548    .text.main:00000000 $t
C:\Users\jonat\AppData\Local\Temp\ccTafFON.s:554    .text.main:00000000 main
C:\Users\jonat\AppData\Local\Temp\ccTafFON.s:649    .text.main:00000060 $d
C:\Users\jonat\AppData\Local\Temp\ccTafFON.s:663    .data.imageSize:00000000 imageSize
C:\Users\jonat\AppData\Local\Temp\ccTafFON.s:695    .bss.start_time:00000000 start_time
C:\Users\jonat\AppData\Local\Temp\ccTafFON.s:674    .bss.checksum:00000000 checksum
C:\Users\jonat\AppData\Local\Temp\ccTafFON.s:688    .bss.end_time:00000000 end_time
C:\Users\jonat\AppData\Local\Temp\ccTafFON.s:681    .bss.execution_time:00000000 execution_time
C:\Users\jonat\AppData\Local\Temp\ccTafFON.s:660    .data.imageSize:00000000 $d
C:\Users\jonat\AppData\Local\Temp\ccTafFON.s:671    .bss.checksum:00000000 $d
C:\Users\jonat\AppData\Local\Temp\ccTafFON.s:678    .bss.execution_time:00000000 $d
C:\Users\jonat\AppData\Local\Temp\ccTafFON.s:685    .bss.end_time:00000000 $d
C:\Users\jonat\AppData\Local\Temp\ccTafFON.s:692    .bss.start_time:00000000 $d

UNDEFINED SYMBOLS
memset
HAL_GPIO_WritePin
HAL_GPIO_Init
__aeabi_idiv
HAL_RCC_OscConfig
HAL_RCC_ClockConfig
HAL_Init
HAL_GetTick
HAL_Delay
